
main:     file format elf64-x86-64


Disassembly of section .init:

0000000000001000 <_init>:
    1000:	f3 0f 1e fa          	endbr64 
    1004:	48 83 ec 08          	sub    $0x8,%rsp
    1008:	48 8b 05 d9 5f 00 00 	mov    0x5fd9(%rip),%rax        # 6fe8 <__gmon_start__>
    100f:	48 85 c0             	test   %rax,%rax
    1012:	74 02                	je     1016 <_init+0x16>
    1014:	ff d0                	callq  *%rax
    1016:	48 83 c4 08          	add    $0x8,%rsp
    101a:	c3                   	retq   

Disassembly of section .plt:

0000000000001020 <.plt>:
    1020:	ff 35 ea 5e 00 00    	pushq  0x5eea(%rip)        # 6f10 <_GLOBAL_OFFSET_TABLE_+0x8>
    1026:	f2 ff 25 eb 5e 00 00 	bnd jmpq *0x5eeb(%rip)        # 6f18 <_GLOBAL_OFFSET_TABLE_+0x10>
    102d:	0f 1f 00             	nopl   (%rax)
    1030:	f3 0f 1e fa          	endbr64 
    1034:	68 00 00 00 00       	pushq  $0x0
    1039:	f2 e9 e1 ff ff ff    	bnd jmpq 1020 <.plt>
    103f:	90                   	nop
    1040:	f3 0f 1e fa          	endbr64 
    1044:	68 01 00 00 00       	pushq  $0x1
    1049:	f2 e9 d1 ff ff ff    	bnd jmpq 1020 <.plt>
    104f:	90                   	nop
    1050:	f3 0f 1e fa          	endbr64 
    1054:	68 02 00 00 00       	pushq  $0x2
    1059:	f2 e9 c1 ff ff ff    	bnd jmpq 1020 <.plt>
    105f:	90                   	nop
    1060:	f3 0f 1e fa          	endbr64 
    1064:	68 03 00 00 00       	pushq  $0x3
    1069:	f2 e9 b1 ff ff ff    	bnd jmpq 1020 <.plt>
    106f:	90                   	nop
    1070:	f3 0f 1e fa          	endbr64 
    1074:	68 04 00 00 00       	pushq  $0x4
    1079:	f2 e9 a1 ff ff ff    	bnd jmpq 1020 <.plt>
    107f:	90                   	nop
    1080:	f3 0f 1e fa          	endbr64 
    1084:	68 05 00 00 00       	pushq  $0x5
    1089:	f2 e9 91 ff ff ff    	bnd jmpq 1020 <.plt>
    108f:	90                   	nop
    1090:	f3 0f 1e fa          	endbr64 
    1094:	68 06 00 00 00       	pushq  $0x6
    1099:	f2 e9 81 ff ff ff    	bnd jmpq 1020 <.plt>
    109f:	90                   	nop
    10a0:	f3 0f 1e fa          	endbr64 
    10a4:	68 07 00 00 00       	pushq  $0x7
    10a9:	f2 e9 71 ff ff ff    	bnd jmpq 1020 <.plt>
    10af:	90                   	nop
    10b0:	f3 0f 1e fa          	endbr64 
    10b4:	68 08 00 00 00       	pushq  $0x8
    10b9:	f2 e9 61 ff ff ff    	bnd jmpq 1020 <.plt>
    10bf:	90                   	nop
    10c0:	f3 0f 1e fa          	endbr64 
    10c4:	68 09 00 00 00       	pushq  $0x9
    10c9:	f2 e9 51 ff ff ff    	bnd jmpq 1020 <.plt>
    10cf:	90                   	nop
    10d0:	f3 0f 1e fa          	endbr64 
    10d4:	68 0a 00 00 00       	pushq  $0xa
    10d9:	f2 e9 41 ff ff ff    	bnd jmpq 1020 <.plt>
    10df:	90                   	nop
    10e0:	f3 0f 1e fa          	endbr64 
    10e4:	68 0b 00 00 00       	pushq  $0xb
    10e9:	f2 e9 31 ff ff ff    	bnd jmpq 1020 <.plt>
    10ef:	90                   	nop
    10f0:	f3 0f 1e fa          	endbr64 
    10f4:	68 0c 00 00 00       	pushq  $0xc
    10f9:	f2 e9 21 ff ff ff    	bnd jmpq 1020 <.plt>
    10ff:	90                   	nop
    1100:	f3 0f 1e fa          	endbr64 
    1104:	68 0d 00 00 00       	pushq  $0xd
    1109:	f2 e9 11 ff ff ff    	bnd jmpq 1020 <.plt>
    110f:	90                   	nop
    1110:	f3 0f 1e fa          	endbr64 
    1114:	68 0e 00 00 00       	pushq  $0xe
    1119:	f2 e9 01 ff ff ff    	bnd jmpq 1020 <.plt>
    111f:	90                   	nop
    1120:	f3 0f 1e fa          	endbr64 
    1124:	68 0f 00 00 00       	pushq  $0xf
    1129:	f2 e9 f1 fe ff ff    	bnd jmpq 1020 <.plt>
    112f:	90                   	nop
    1130:	f3 0f 1e fa          	endbr64 
    1134:	68 10 00 00 00       	pushq  $0x10
    1139:	f2 e9 e1 fe ff ff    	bnd jmpq 1020 <.plt>
    113f:	90                   	nop
    1140:	f3 0f 1e fa          	endbr64 
    1144:	68 11 00 00 00       	pushq  $0x11
    1149:	f2 e9 d1 fe ff ff    	bnd jmpq 1020 <.plt>
    114f:	90                   	nop
    1150:	f3 0f 1e fa          	endbr64 
    1154:	68 12 00 00 00       	pushq  $0x12
    1159:	f2 e9 c1 fe ff ff    	bnd jmpq 1020 <.plt>
    115f:	90                   	nop
    1160:	f3 0f 1e fa          	endbr64 
    1164:	68 13 00 00 00       	pushq  $0x13
    1169:	f2 e9 b1 fe ff ff    	bnd jmpq 1020 <.plt>
    116f:	90                   	nop
    1170:	f3 0f 1e fa          	endbr64 
    1174:	68 14 00 00 00       	pushq  $0x14
    1179:	f2 e9 a1 fe ff ff    	bnd jmpq 1020 <.plt>
    117f:	90                   	nop

Disassembly of section .plt.got:

0000000000001180 <__cxa_finalize@plt>:
    1180:	f3 0f 1e fa          	endbr64 
    1184:	f2 ff 25 3d 5e 00 00 	bnd jmpq *0x5e3d(%rip)        # 6fc8 <__cxa_finalize@GLIBC_2.2.5>
    118b:	0f 1f 44 00 00       	nopl   0x0(%rax,%rax,1)

Disassembly of section .plt.sec:

0000000000001190 <printf@plt>:
    1190:	f3 0f 1e fa          	endbr64 
    1194:	f2 ff 25 85 5d 00 00 	bnd jmpq *0x5d85(%rip)        # 6f20 <printf@GLIBC_2.2.5>
    119b:	0f 1f 44 00 00       	nopl   0x0(%rax,%rax,1)

00000000000011a0 <_ZSt17__throw_bad_allocv@plt>:
    11a0:	f3 0f 1e fa          	endbr64 
    11a4:	f2 ff 25 7d 5d 00 00 	bnd jmpq *0x5d7d(%rip)        # 6f28 <_ZSt17__throw_bad_allocv@GLIBCXX_3.4>
    11ab:	0f 1f 44 00 00       	nopl   0x0(%rax,%rax,1)

00000000000011b0 <__cxa_begin_catch@plt>:
    11b0:	f3 0f 1e fa          	endbr64 
    11b4:	f2 ff 25 75 5d 00 00 	bnd jmpq *0x5d75(%rip)        # 6f30 <__cxa_begin_catch@CXXABI_1.3>
    11bb:	0f 1f 44 00 00       	nopl   0x0(%rax,%rax,1)

00000000000011c0 <_ZSt20__throw_length_errorPKc@plt>:
    11c0:	f3 0f 1e fa          	endbr64 
    11c4:	f2 ff 25 6d 5d 00 00 	bnd jmpq *0x5d6d(%rip)        # 6f38 <_ZSt20__throw_length_errorPKc@GLIBCXX_3.4>
    11cb:	0f 1f 44 00 00       	nopl   0x0(%rax,%rax,1)

00000000000011d0 <memcpy@plt>:
    11d0:	f3 0f 1e fa          	endbr64 
    11d4:	f2 ff 25 65 5d 00 00 	bnd jmpq *0x5d65(%rip)        # 6f40 <memcpy@GLIBC_2.14>
    11db:	0f 1f 44 00 00       	nopl   0x0(%rax,%rax,1)

00000000000011e0 <perror@plt>:
    11e0:	f3 0f 1e fa          	endbr64 
    11e4:	f2 ff 25 5d 5d 00 00 	bnd jmpq *0x5d5d(%rip)        # 6f48 <perror@GLIBC_2.2.5>
    11eb:	0f 1f 44 00 00       	nopl   0x0(%rax,%rax,1)

00000000000011f0 <__cxa_atexit@plt>:
    11f0:	f3 0f 1e fa          	endbr64 
    11f4:	f2 ff 25 55 5d 00 00 	bnd jmpq *0x5d55(%rip)        # 6f50 <__cxa_atexit@GLIBC_2.2.5>
    11fb:	0f 1f 44 00 00       	nopl   0x0(%rax,%rax,1)

0000000000001200 <_ZdlPv@plt>:
    1200:	f3 0f 1e fa          	endbr64 
    1204:	f2 ff 25 4d 5d 00 00 	bnd jmpq *0x5d4d(%rip)        # 6f58 <_ZdlPv@GLIBCXX_3.4>
    120b:	0f 1f 44 00 00       	nopl   0x0(%rax,%rax,1)

0000000000001210 <_ZStlsISt11char_traitsIcEERSt13basic_ostreamIcT_ES5_PKc@plt>:
    1210:	f3 0f 1e fa          	endbr64 
    1214:	f2 ff 25 45 5d 00 00 	bnd jmpq *0x5d45(%rip)        # 6f60 <_ZStlsISt11char_traitsIcEERSt13basic_ostreamIcT_ES5_PKc@GLIBCXX_3.4>
    121b:	0f 1f 44 00 00       	nopl   0x0(%rax,%rax,1)

0000000000001220 <_Znwm@plt>:
    1220:	f3 0f 1e fa          	endbr64 
    1224:	f2 ff 25 3d 5d 00 00 	bnd jmpq *0x5d3d(%rip)        # 6f68 <_Znwm@GLIBCXX_3.4>
    122b:	0f 1f 44 00 00       	nopl   0x0(%rax,%rax,1)

0000000000001230 <_ZNSolsEPFRSoS_E@plt>:
    1230:	f3 0f 1e fa          	endbr64 
    1234:	f2 ff 25 35 5d 00 00 	bnd jmpq *0x5d35(%rip)        # 6f70 <_ZNSolsEPFRSoS_E@GLIBCXX_3.4>
    123b:	0f 1f 44 00 00       	nopl   0x0(%rax,%rax,1)

0000000000001240 <__stack_chk_fail@plt>:
    1240:	f3 0f 1e fa          	endbr64 
    1244:	f2 ff 25 2d 5d 00 00 	bnd jmpq *0x5d2d(%rip)        # 6f78 <__stack_chk_fail@GLIBC_2.4>
    124b:	0f 1f 44 00 00       	nopl   0x0(%rax,%rax,1)

0000000000001250 <_ZNSolsEj@plt>:
    1250:	f3 0f 1e fa          	endbr64 
    1254:	f2 ff 25 25 5d 00 00 	bnd jmpq *0x5d25(%rip)        # 6f80 <_ZNSolsEj@GLIBCXX_3.4>
    125b:	0f 1f 44 00 00       	nopl   0x0(%rax,%rax,1)

0000000000001260 <putchar@plt>:
    1260:	f3 0f 1e fa          	endbr64 
    1264:	f2 ff 25 1d 5d 00 00 	bnd jmpq *0x5d1d(%rip)        # 6f88 <putchar@GLIBC_2.2.5>
    126b:	0f 1f 44 00 00       	nopl   0x0(%rax,%rax,1)

0000000000001270 <__cxa_rethrow@plt>:
    1270:	f3 0f 1e fa          	endbr64 
    1274:	f2 ff 25 15 5d 00 00 	bnd jmpq *0x5d15(%rip)        # 6f90 <__cxa_rethrow@CXXABI_1.3>
    127b:	0f 1f 44 00 00       	nopl   0x0(%rax,%rax,1)

0000000000001280 <_ZNSt8ios_base4InitC1Ev@plt>:
    1280:	f3 0f 1e fa          	endbr64 
    1284:	f2 ff 25 0d 5d 00 00 	bnd jmpq *0x5d0d(%rip)        # 6f98 <_ZNSt8ios_base4InitC1Ev@GLIBCXX_3.4>
    128b:	0f 1f 44 00 00       	nopl   0x0(%rax,%rax,1)

0000000000001290 <memmove@plt>:
    1290:	f3 0f 1e fa          	endbr64 
    1294:	f2 ff 25 05 5d 00 00 	bnd jmpq *0x5d05(%rip)        # 6fa0 <memmove@GLIBC_2.2.5>
    129b:	0f 1f 44 00 00       	nopl   0x0(%rax,%rax,1)

00000000000012a0 <__cxa_end_catch@plt>:
    12a0:	f3 0f 1e fa          	endbr64 
    12a4:	f2 ff 25 fd 5c 00 00 	bnd jmpq *0x5cfd(%rip)        # 6fa8 <__cxa_end_catch@CXXABI_1.3>
    12ab:	0f 1f 44 00 00       	nopl   0x0(%rax,%rax,1)

00000000000012b0 <_Unwind_Resume@plt>:
    12b0:	f3 0f 1e fa          	endbr64 
    12b4:	f2 ff 25 f5 5c 00 00 	bnd jmpq *0x5cf5(%rip)        # 6fb0 <_Unwind_Resume@GCC_3.0>
    12bb:	0f 1f 44 00 00       	nopl   0x0(%rax,%rax,1)

00000000000012c0 <mmap@plt>:
    12c0:	f3 0f 1e fa          	endbr64 
    12c4:	f2 ff 25 ed 5c 00 00 	bnd jmpq *0x5ced(%rip)        # 6fb8 <mmap@GLIBC_2.2.5>
    12cb:	0f 1f 44 00 00       	nopl   0x0(%rax,%rax,1)

00000000000012d0 <_ZNSolsEl@plt>:
    12d0:	f3 0f 1e fa          	endbr64 
    12d4:	f2 ff 25 e5 5c 00 00 	bnd jmpq *0x5ce5(%rip)        # 6fc0 <_ZNSolsEl@GLIBCXX_3.4>
    12db:	0f 1f 44 00 00       	nopl   0x0(%rax,%rax,1)

Disassembly of section .text:

00000000000012e0 <_start>:
    12e0:	f3 0f 1e fa          	endbr64 
    12e4:	31 ed                	xor    %ebp,%ebp
    12e6:	49 89 d1             	mov    %rdx,%r9
    12e9:	5e                   	pop    %rsi
    12ea:	48 89 e2             	mov    %rsp,%rdx
    12ed:	48 83 e4 f0          	and    $0xfffffffffffffff0,%rsp
    12f1:	50                   	push   %rax
    12f2:	54                   	push   %rsp
    12f3:	4c 8d 05 66 27 00 00 	lea    0x2766(%rip),%r8        # 3a60 <__libc_csu_fini>
    12fa:	48 8d 0d ef 26 00 00 	lea    0x26ef(%rip),%rcx        # 39f0 <__libc_csu_init>
    1301:	48 8d 3d af 02 00 00 	lea    0x2af(%rip),%rdi        # 15b7 <main>
    1308:	ff 15 d2 5c 00 00    	callq  *0x5cd2(%rip)        # 6fe0 <__libc_start_main@GLIBC_2.2.5>
    130e:	f4                   	hlt    
    130f:	90                   	nop

0000000000001310 <deregister_tm_clones>:
    1310:	48 8d 3d 01 5d 00 00 	lea    0x5d01(%rip),%rdi        # 7018 <__TMC_END__>
    1317:	48 8d 05 fa 5c 00 00 	lea    0x5cfa(%rip),%rax        # 7018 <__TMC_END__>
    131e:	48 39 f8             	cmp    %rdi,%rax
    1321:	74 15                	je     1338 <deregister_tm_clones+0x28>
    1323:	48 8b 05 ae 5c 00 00 	mov    0x5cae(%rip),%rax        # 6fd8 <_ITM_deregisterTMCloneTable>
    132a:	48 85 c0             	test   %rax,%rax
    132d:	74 09                	je     1338 <deregister_tm_clones+0x28>
    132f:	ff e0                	jmpq   *%rax
    1331:	0f 1f 80 00 00 00 00 	nopl   0x0(%rax)
    1338:	c3                   	retq   
    1339:	0f 1f 80 00 00 00 00 	nopl   0x0(%rax)

0000000000001340 <register_tm_clones>:
    1340:	48 8d 3d d1 5c 00 00 	lea    0x5cd1(%rip),%rdi        # 7018 <__TMC_END__>
    1347:	48 8d 35 ca 5c 00 00 	lea    0x5cca(%rip),%rsi        # 7018 <__TMC_END__>
    134e:	48 29 fe             	sub    %rdi,%rsi
    1351:	48 89 f0             	mov    %rsi,%rax
    1354:	48 c1 ee 3f          	shr    $0x3f,%rsi
    1358:	48 c1 f8 03          	sar    $0x3,%rax
    135c:	48 01 c6             	add    %rax,%rsi
    135f:	48 d1 fe             	sar    %rsi
    1362:	74 14                	je     1378 <register_tm_clones+0x38>
    1364:	48 8b 05 85 5c 00 00 	mov    0x5c85(%rip),%rax        # 6ff0 <_ITM_registerTMCloneTable>
    136b:	48 85 c0             	test   %rax,%rax
    136e:	74 08                	je     1378 <register_tm_clones+0x38>
    1370:	ff e0                	jmpq   *%rax
    1372:	66 0f 1f 44 00 00    	nopw   0x0(%rax,%rax,1)
    1378:	c3                   	retq   
    1379:	0f 1f 80 00 00 00 00 	nopl   0x0(%rax)

0000000000001380 <__do_global_dtors_aux>:
    1380:	f3 0f 1e fa          	endbr64 
    1384:	80 3d c5 5d 00 00 00 	cmpb   $0x0,0x5dc5(%rip)        # 7150 <completed.8061>
    138b:	75 2b                	jne    13b8 <__do_global_dtors_aux+0x38>
    138d:	55                   	push   %rbp
    138e:	48 83 3d 32 5c 00 00 	cmpq   $0x0,0x5c32(%rip)        # 6fc8 <__cxa_finalize@GLIBC_2.2.5>
    1395:	00 
    1396:	48 89 e5             	mov    %rsp,%rbp
    1399:	74 0c                	je     13a7 <__do_global_dtors_aux+0x27>
    139b:	48 8b 3d 66 5c 00 00 	mov    0x5c66(%rip),%rdi        # 7008 <__dso_handle>
    13a2:	e8 d9 fd ff ff       	callq  1180 <__cxa_finalize@plt>
    13a7:	e8 64 ff ff ff       	callq  1310 <deregister_tm_clones>
    13ac:	c6 05 9d 5d 00 00 01 	movb   $0x1,0x5d9d(%rip)        # 7150 <completed.8061>
    13b3:	5d                   	pop    %rbp
    13b4:	c3                   	retq   
    13b5:	0f 1f 00             	nopl   (%rax)
    13b8:	c3                   	retq   
    13b9:	0f 1f 80 00 00 00 00 	nopl   0x0(%rax)

00000000000013c0 <frame_dummy>:
    13c0:	f3 0f 1e fa          	endbr64 
    13c4:	e9 77 ff ff ff       	jmpq   1340 <register_tm_clones>

00000000000013c9 <_Z23alloc_executable_memorym>:
    13c9:	f3 0f 1e fa          	endbr64 
    13cd:	55                   	push   %rbp
    13ce:	48 89 e5             	mov    %rsp,%rbp
    13d1:	48 83 ec 20          	sub    $0x20,%rsp
    13d5:	48 89 7d e8          	mov    %rdi,-0x18(%rbp)
    13d9:	48 8b 45 e8          	mov    -0x18(%rbp),%rax
    13dd:	41 b9 00 00 00 00    	mov    $0x0,%r9d
    13e3:	41 b8 ff ff ff ff    	mov    $0xffffffff,%r8d
    13e9:	b9 22 00 00 00       	mov    $0x22,%ecx
    13ee:	ba 07 00 00 00       	mov    $0x7,%edx
    13f3:	48 89 c6             	mov    %rax,%rsi
    13f6:	bf 00 00 00 00       	mov    $0x0,%edi
    13fb:	e8 c0 fe ff ff       	callq  12c0 <mmap@plt>
    1400:	48 89 45 f8          	mov    %rax,-0x8(%rbp)
    1404:	48 83 7d f8 ff       	cmpq   $0xffffffffffffffff,-0x8(%rbp)
    1409:	75 13                	jne    141e <_Z23alloc_executable_memorym+0x55>
    140b:	48 8d 3d 2b 2c 00 00 	lea    0x2c2b(%rip),%rdi        # 403d <_IO_stdin_used+0x3d>
    1412:	e8 c9 fd ff ff       	callq  11e0 <perror@plt>
    1417:	b8 00 00 00 00       	mov    $0x0,%eax
    141c:	eb 04                	jmp    1422 <_Z23alloc_executable_memorym+0x59>
    141e:	48 8b 45 f8          	mov    -0x8(%rbp),%rax
    1422:	c9                   	leaveq 
    1423:	c3                   	retq   

0000000000001424 <_Z21emit_code_into_memoryPv>:
    1424:	f3 0f 1e fa          	endbr64 
    1428:	55                   	push   %rbp
    1429:	48 89 e5             	mov    %rsp,%rbp
    142c:	53                   	push   %rbx
    142d:	48 83 ec 58          	sub    $0x58,%rsp
    1431:	48 89 7d a8          	mov    %rdi,-0x58(%rbp)
    1435:	64 48 8b 04 25 28 00 	mov    %fs:0x28,%rax
    143c:	00 00 
    143e:	48 89 45 e8          	mov    %rax,-0x18(%rbp)
    1442:	31 c0                	xor    %eax,%eax
    1444:	48 c7 45 d0 00 00 00 	movq   $0x0,-0x30(%rbp)
    144b:	00 
    144c:	48 c7 45 d8 00 00 00 	movq   $0x0,-0x28(%rbp)
    1453:	00 
    1454:	48 c7 45 e0 00 00 00 	movq   $0x0,-0x20(%rbp)
    145b:	00 
    145c:	48 8d 45 d0          	lea    -0x30(%rbp),%rax
    1460:	48 89 c7             	mov    %rax,%rdi
    1463:	e8 54 07 00 00       	callq  1bbc <_ZNSt6vectorIhSaIhEEC1Ev>
    1468:	48 8d 45 d0          	lea    -0x30(%rbp),%rax
    146c:	be 00 00 00 00       	mov    $0x0,%esi
    1471:	48 89 c7             	mov    %rax,%rdi
    1474:	e8 37 03 00 00       	callq  17b0 <_ZN11JITCompiler20emit_invocation_codeERSt6vectorIhSaIhEEj>
    1479:	c6 45 c0 c3          	movb   $0xc3,-0x40(%rbp)
    147d:	48 8d 55 c0          	lea    -0x40(%rbp),%rdx
    1481:	48 8d 45 d0          	lea    -0x30(%rbp),%rax
    1485:	48 89 d6             	mov    %rdx,%rsi
    1488:	48 89 c7             	mov    %rax,%rdi
    148b:	e8 16 0b 00 00       	callq  1fa6 <_ZNSt6vectorIhSaIhEE9push_backEOh>
    1490:	48 8d 45 d0          	lea    -0x30(%rbp),%rax
    1494:	48 89 45 c8          	mov    %rax,-0x38(%rbp)
    1498:	48 8b 45 c8          	mov    -0x38(%rbp),%rax
    149c:	48 89 c7             	mov    %rax,%rdi
    149f:	e8 38 0b 00 00       	callq  1fdc <_ZNSt6vectorIhSaIhEE5beginEv>
    14a4:	48 89 45 b8          	mov    %rax,-0x48(%rbp)
    14a8:	48 8b 45 c8          	mov    -0x38(%rbp),%rax
    14ac:	48 89 c7             	mov    %rax,%rdi
    14af:	e8 2c 08 00 00       	callq  1ce0 <_ZNSt6vectorIhSaIhEE3endEv>
    14b4:	48 89 45 c0          	mov    %rax,-0x40(%rbp)
    14b8:	48 8d 55 c0          	lea    -0x40(%rbp),%rdx
    14bc:	48 8d 45 b8          	lea    -0x48(%rbp),%rax
    14c0:	48 89 d6             	mov    %rdx,%rsi
    14c3:	48 89 c7             	mov    %rax,%rdi
    14c6:	e8 5d 0b 00 00       	callq  2028 <_ZN9__gnu_cxxneIPhSt6vectorIhSaIhEEEEbRKNS_17__normal_iteratorIT_T0_EESA_>
    14cb:	84 c0                	test   %al,%al
    14cd:	74 37                	je     1506 <_Z21emit_code_into_memoryPv+0xe2>
    14cf:	48 8d 45 b8          	lea    -0x48(%rbp),%rax
    14d3:	48 89 c7             	mov    %rax,%rdi
    14d6:	e8 b1 0b 00 00       	callq  208c <_ZNK9__gnu_cxx17__normal_iteratorIPhSt6vectorIhSaIhEEEdeEv>
    14db:	0f b6 00             	movzbl (%rax),%eax
    14de:	88 45 b7             	mov    %al,-0x49(%rbp)
    14e1:	0f b6 45 b7          	movzbl -0x49(%rbp),%eax
    14e5:	89 c6                	mov    %eax,%esi
    14e7:	48 8d 3d 54 2b 00 00 	lea    0x2b54(%rip),%rdi        # 4042 <_IO_stdin_used+0x42>
    14ee:	b8 00 00 00 00       	mov    $0x0,%eax
    14f3:	e8 98 fc ff ff       	callq  1190 <printf@plt>
    14f8:	48 8d 45 b8          	lea    -0x48(%rbp),%rax
    14fc:	48 89 c7             	mov    %rax,%rdi
    14ff:	e8 64 0b 00 00       	callq  2068 <_ZN9__gnu_cxx17__normal_iteratorIPhSt6vectorIhSaIhEEEppEv>
    1504:	eb b2                	jmp    14b8 <_Z21emit_code_into_memoryPv+0x94>
    1506:	bf 0a 00 00 00       	mov    $0xa,%edi
    150b:	e8 50 fd ff ff       	callq  1260 <putchar@plt>
    1510:	48 8d 45 d0          	lea    -0x30(%rbp),%rax
    1514:	48 89 c7             	mov    %rax,%rdi
    1517:	e8 86 0b 00 00       	callq  20a2 <_ZNSt6vectorIhSaIhEE4dataEv>
    151c:	48 89 c1             	mov    %rax,%rcx
    151f:	48 8b 45 a8          	mov    -0x58(%rbp),%rax
    1523:	ba 18 00 00 00       	mov    $0x18,%edx
    1528:	48 89 ce             	mov    %rcx,%rsi
    152b:	48 89 c7             	mov    %rax,%rdi
    152e:	e8 9d fc ff ff       	callq  11d0 <memcpy@plt>
    1533:	48 8d 45 d0          	lea    -0x30(%rbp),%rax
    1537:	48 89 c7             	mov    %rax,%rdi
    153a:	e8 1f 0a 00 00       	callq  1f5e <_ZNSt6vectorIhSaIhEED1Ev>
    153f:	90                   	nop
    1540:	48 8b 45 e8          	mov    -0x18(%rbp),%rax
    1544:	64 48 33 04 25 28 00 	xor    %fs:0x28,%rax
    154b:	00 00 
    154d:	74 25                	je     1574 <_Z21emit_code_into_memoryPv+0x150>
    154f:	eb 1e                	jmp    156f <_Z21emit_code_into_memoryPv+0x14b>
    1551:	f3 0f 1e fa          	endbr64 
    1555:	48 89 c3             	mov    %rax,%rbx
    1558:	48 8d 45 d0          	lea    -0x30(%rbp),%rax
    155c:	48 89 c7             	mov    %rax,%rdi
    155f:	e8 fa 09 00 00       	callq  1f5e <_ZNSt6vectorIhSaIhEED1Ev>
    1564:	48 89 d8             	mov    %rbx,%rax
    1567:	48 89 c7             	mov    %rax,%rdi
    156a:	e8 41 fd ff ff       	callq  12b0 <_Unwind_Resume@plt>
    156f:	e8 cc fc ff ff       	callq  1240 <__stack_chk_fail@plt>
    1574:	48 83 c4 58          	add    $0x58,%rsp
    1578:	5b                   	pop    %rbx
    1579:	5d                   	pop    %rbp
    157a:	c3                   	retq   

000000000000157b <_Z12run_from_rwxv>:
    157b:	f3 0f 1e fa          	endbr64 
    157f:	55                   	push   %rbp
    1580:	48 89 e5             	mov    %rsp,%rbp
    1583:	48 83 ec 10          	sub    $0x10,%rsp
    1587:	bf 00 04 00 00       	mov    $0x400,%edi
    158c:	e8 38 fe ff ff       	callq  13c9 <_Z23alloc_executable_memorym>
    1591:	48 89 45 f0          	mov    %rax,-0x10(%rbp)
    1595:	48 8b 45 f0          	mov    -0x10(%rbp),%rax
    1599:	48 89 c7             	mov    %rax,%rdi
    159c:	e8 83 fe ff ff       	callq  1424 <_Z21emit_code_into_memoryPv>
    15a1:	48 8b 45 f0          	mov    -0x10(%rbp),%rax
    15a5:	48 89 45 f8          	mov    %rax,-0x8(%rbp)
    15a9:	48 8b 45 f8          	mov    -0x8(%rbp),%rax
    15ad:	bf 0a 00 00 00       	mov    $0xa,%edi
    15b2:	ff d0                	callq  *%rax
    15b4:	90                   	nop
    15b5:	c9                   	leaveq 
    15b6:	c3                   	retq   

00000000000015b7 <main>:
    15b7:	f3 0f 1e fa          	endbr64 
    15bb:	55                   	push   %rbp
    15bc:	48 89 e5             	mov    %rsp,%rbp
    15bf:	53                   	push   %rbx
    15c0:	48 83 ec 18          	sub    $0x18,%rsp
    15c4:	64 48 8b 04 25 28 00 	mov    %fs:0x28,%rax
    15cb:	00 00 
    15cd:	48 89 45 e8          	mov    %rax,-0x18(%rbp)
    15d1:	31 c0                	xor    %eax,%eax
    15d3:	48 8d 05 00 01 00 00 	lea    0x100(%rip),%rax        # 16da <_ZN11JITCompiler19trigger_compilationEj>
    15da:	48 89 45 e0          	mov    %rax,-0x20(%rbp)
    15de:	48 8d 3d 7b 5b 00 00 	lea    0x5b7b(%rip),%rdi        # 7160 <address_lookup>
    15e5:	e8 f2 0a 00 00       	callq  20dc <_ZSt3endIlLm100EEPT_RAT0__S0_>
    15ea:	48 89 c3             	mov    %rax,%rbx
    15ed:	48 8d 3d 6c 5b 00 00 	lea    0x5b6c(%rip),%rdi        # 7160 <address_lookup>
    15f4:	e8 d1 0a 00 00       	callq  20ca <_ZSt5beginIlLm100EEPT_RAT0__S0_>
    15f9:	48 89 c1             	mov    %rax,%rcx
    15fc:	48 8d 45 e0          	lea    -0x20(%rbp),%rax
    1600:	48 89 c2             	mov    %rax,%rdx
    1603:	48 89 de             	mov    %rbx,%rsi
    1606:	48 89 cf             	mov    %rcx,%rdi
    1609:	e8 e6 0a 00 00       	callq  20f4 <_ZSt4fillIPllEvT_S1_RKT0_>
    160e:	48 8b 05 53 5b 00 00 	mov    0x5b53(%rip),%rax        # 7168 <address_lookup+0x8>
    1615:	48 89 c6             	mov    %rax,%rsi
    1618:	48 8d 3d 21 5a 00 00 	lea    0x5a21(%rip),%rdi        # 7040 <_ZSt4cout@@GLIBCXX_3.4>
    161f:	e8 ac fc ff ff       	callq  12d0 <_ZNSolsEl@plt>
    1624:	48 89 c2             	mov    %rax,%rdx
    1627:	48 8b 05 a2 59 00 00 	mov    0x59a2(%rip),%rax        # 6fd0 <_ZSt4endlIcSt11char_traitsIcEERSt13basic_ostreamIT_T0_ES6_@GLIBCXX_3.4>
    162e:	48 89 c6             	mov    %rax,%rsi
    1631:	48 89 d7             	mov    %rdx,%rdi
    1634:	e8 f7 fb ff ff       	callq  1230 <_ZNSolsEPFRSoS_E@plt>
    1639:	e8 3d ff ff ff       	callq  157b <_Z12run_from_rwxv>
    163e:	b8 00 00 00 00       	mov    $0x0,%eax
    1643:	48 8b 4d e8          	mov    -0x18(%rbp),%rcx
    1647:	64 48 33 0c 25 28 00 	xor    %fs:0x28,%rcx
    164e:	00 00 
    1650:	74 05                	je     1657 <main+0xa0>
    1652:	e8 e9 fb ff ff       	callq  1240 <__stack_chk_fail@plt>
    1657:	48 83 c4 18          	add    $0x18,%rsp
    165b:	5b                   	pop    %rbx
    165c:	5d                   	pop    %rbp
    165d:	c3                   	retq   

000000000000165e <_Z41__static_initialization_and_destruction_0ii>:
    165e:	f3 0f 1e fa          	endbr64 
    1662:	55                   	push   %rbp
    1663:	48 89 e5             	mov    %rsp,%rbp
    1666:	48 83 ec 10          	sub    $0x10,%rsp
    166a:	89 7d fc             	mov    %edi,-0x4(%rbp)
    166d:	89 75 f8             	mov    %esi,-0x8(%rbp)
    1670:	83 7d fc 01          	cmpl   $0x1,-0x4(%rbp)
    1674:	75 32                	jne    16a8 <_Z41__static_initialization_and_destruction_0ii+0x4a>
    1676:	81 7d f8 ff ff 00 00 	cmpl   $0xffff,-0x8(%rbp)
    167d:	75 29                	jne    16a8 <_Z41__static_initialization_and_destruction_0ii+0x4a>
    167f:	48 8d 3d fa 5d 00 00 	lea    0x5dfa(%rip),%rdi        # 7480 <_ZStL8__ioinit>
    1686:	e8 f5 fb ff ff       	callq  1280 <_ZNSt8ios_base4InitC1Ev@plt>
    168b:	48 8d 15 76 59 00 00 	lea    0x5976(%rip),%rdx        # 7008 <__dso_handle>
    1692:	48 8d 35 e7 5d 00 00 	lea    0x5de7(%rip),%rsi        # 7480 <_ZStL8__ioinit>
    1699:	48 8b 05 58 59 00 00 	mov    0x5958(%rip),%rax        # 6ff8 <_ZNSt8ios_base4InitD1Ev@GLIBCXX_3.4>
    16a0:	48 89 c7             	mov    %rax,%rdi
    16a3:	e8 48 fb ff ff       	callq  11f0 <__cxa_atexit@plt>
    16a8:	90                   	nop
    16a9:	c9                   	leaveq 
    16aa:	c3                   	retq   

00000000000016ab <_GLOBAL__sub_I_address_lookup>:
    16ab:	f3 0f 1e fa          	endbr64 
    16af:	55                   	push   %rbp
    16b0:	48 89 e5             	mov    %rsp,%rbp
    16b3:	be ff ff 00 00       	mov    $0xffff,%esi
    16b8:	bf 01 00 00 00       	mov    $0x1,%edi
    16bd:	e8 9c ff ff ff       	callq  165e <_Z41__static_initialization_and_destruction_0ii>
    16c2:	5d                   	pop    %rbp
    16c3:	c3                   	retq   

00000000000016c4 <_ZnwmPv>:
    16c4:	f3 0f 1e fa          	endbr64 
    16c8:	55                   	push   %rbp
    16c9:	48 89 e5             	mov    %rsp,%rbp
    16cc:	48 89 7d f8          	mov    %rdi,-0x8(%rbp)
    16d0:	48 89 75 f0          	mov    %rsi,-0x10(%rbp)
    16d4:	48 8b 45 f0          	mov    -0x10(%rbp),%rax
    16d8:	5d                   	pop    %rbp
    16d9:	c3                   	retq   

00000000000016da <_ZN11JITCompiler19trigger_compilationEj>:
    16da:	f3 0f 1e fa          	endbr64 
    16de:	55                   	push   %rbp
    16df:	48 89 e5             	mov    %rsp,%rbp
    16e2:	48 83 ec 10          	sub    $0x10,%rsp
    16e6:	89 7d fc             	mov    %edi,-0x4(%rbp)
    16e9:	48 8d 35 18 29 00 00 	lea    0x2918(%rip),%rsi        # 4008 <_IO_stdin_used+0x8>
    16f0:	48 8d 3d 49 59 00 00 	lea    0x5949(%rip),%rdi        # 7040 <_ZSt4cout@@GLIBCXX_3.4>
    16f7:	e8 14 fb ff ff       	callq  1210 <_ZStlsISt11char_traitsIcEERSt13basic_ostreamIcT_ES5_PKc@plt>
    16fc:	48 89 c2             	mov    %rax,%rdx
    16ff:	8b 45 fc             	mov    -0x4(%rbp),%eax
    1702:	89 c6                	mov    %eax,%esi
    1704:	48 89 d7             	mov    %rdx,%rdi
    1707:	e8 44 fb ff ff       	callq  1250 <_ZNSolsEj@plt>
    170c:	48 89 c2             	mov    %rax,%rdx
    170f:	48 8b 05 ba 58 00 00 	mov    0x58ba(%rip),%rax        # 6fd0 <_ZSt4endlIcSt11char_traitsIcEERSt13basic_ostreamIT_T0_ES6_@GLIBCXX_3.4>
    1716:	48 89 c6             	mov    %rax,%rsi
    1719:	48 89 d7             	mov    %rdx,%rdi
    171c:	e8 0f fb ff ff       	callq  1230 <_ZNSolsEPFRSoS_E@plt>
    1721:	90                   	nop
    1722:	c9                   	leaveq 
    1723:	c3                   	retq   

0000000000001724 <_ZNSt5arrayIhLm8EEixEm>:
    1724:	f3 0f 1e fa          	endbr64 
    1728:	55                   	push   %rbp
    1729:	48 89 e5             	mov    %rsp,%rbp
    172c:	48 83 ec 10          	sub    $0x10,%rsp
    1730:	48 89 7d f8          	mov    %rdi,-0x8(%rbp)
    1734:	48 89 75 f0          	mov    %rsi,-0x10(%rbp)
    1738:	48 8b 45 f8          	mov    -0x8(%rbp),%rax
    173c:	48 8b 55 f0          	mov    -0x10(%rbp),%rdx
    1740:	48 89 d6             	mov    %rdx,%rsi
    1743:	48 89 c7             	mov    %rax,%rdi
    1746:	e8 02 00 00 00       	callq  174d <_ZNSt14__array_traitsIhLm8EE6_S_refERA8_Khm>
    174b:	c9                   	leaveq 
    174c:	c3                   	retq   

000000000000174d <_ZNSt14__array_traitsIhLm8EE6_S_refERA8_Khm>:
    174d:	f3 0f 1e fa          	endbr64 
    1751:	55                   	push   %rbp
    1752:	48 89 e5             	mov    %rsp,%rbp
    1755:	48 89 7d f8          	mov    %rdi,-0x8(%rbp)
    1759:	48 89 75 f0          	mov    %rsi,-0x10(%rbp)
    175d:	48 8b 55 f8          	mov    -0x8(%rbp),%rdx
    1761:	48 8b 45 f0          	mov    -0x10(%rbp),%rax
    1765:	48 01 d0             	add    %rdx,%rax
    1768:	5d                   	pop    %rbp
    1769:	c3                   	retq   

000000000000176a <_ZNSt5arrayIhLm4EEixEm>:
    176a:	f3 0f 1e fa          	endbr64 
    176e:	55                   	push   %rbp
    176f:	48 89 e5             	mov    %rsp,%rbp
    1772:	48 83 ec 10          	sub    $0x10,%rsp
    1776:	48 89 7d f8          	mov    %rdi,-0x8(%rbp)
    177a:	48 89 75 f0          	mov    %rsi,-0x10(%rbp)
    177e:	48 8b 45 f8          	mov    -0x8(%rbp),%rax
    1782:	48 8b 55 f0          	mov    -0x10(%rbp),%rdx
    1786:	48 89 d6             	mov    %rdx,%rsi
    1789:	48 89 c7             	mov    %rax,%rdi
    178c:	e8 02 00 00 00       	callq  1793 <_ZNSt14__array_traitsIhLm4EE6_S_refERA4_Khm>
    1791:	c9                   	leaveq 
    1792:	c3                   	retq   

0000000000001793 <_ZNSt14__array_traitsIhLm4EE6_S_refERA4_Khm>:
    1793:	f3 0f 1e fa          	endbr64 
    1797:	55                   	push   %rbp
    1798:	48 89 e5             	mov    %rsp,%rbp
    179b:	48 89 7d f8          	mov    %rdi,-0x8(%rbp)
    179f:	48 89 75 f0          	mov    %rsi,-0x10(%rbp)
    17a3:	48 8b 55 f8          	mov    -0x8(%rbp),%rdx
    17a7:	48 8b 45 f0          	mov    -0x10(%rbp),%rax
    17ab:	48 01 d0             	add    %rdx,%rax
    17ae:	5d                   	pop    %rbp
    17af:	c3                   	retq   

00000000000017b0 <_ZN11JITCompiler20emit_invocation_codeERSt6vectorIhSaIhEEj>:
    17b0:	f3 0f 1e fa          	endbr64 
    17b4:	55                   	push   %rbp
    17b5:	48 89 e5             	mov    %rsp,%rbp
    17b8:	41 54                	push   %r12
    17ba:	53                   	push   %rbx
    17bb:	48 83 ec 60          	sub    $0x60,%rsp
    17bf:	48 89 7d 98          	mov    %rdi,-0x68(%rbp)
    17c3:	89 75 94             	mov    %esi,-0x6c(%rbp)
    17c6:	64 48 8b 04 25 28 00 	mov    %fs:0x28,%rax
    17cd:	00 00 
    17cf:	48 89 45 e8          	mov    %rax,-0x18(%rbp)
    17d3:	31 c0                	xor    %eax,%eax
    17d5:	48 8d 05 84 59 00 00 	lea    0x5984(%rip),%rax        # 7160 <address_lookup>
    17dc:	48 89 c7             	mov    %rax,%rdi
    17df:	e8 f7 03 00 00       	callq  1bdb <_ZN11JITCompiler13little_endianILm8ElEESt5arrayIhXT_EET0_>
    17e4:	48 89 45 c6          	mov    %rax,-0x3a(%rbp)
    17e8:	48 c7 45 de 00 00 00 	movq   $0x0,-0x22(%rbp)
    17ef:	00 
    17f0:	66 c7 45 e6 00 00    	movw   $0x0,-0x1a(%rbp)
    17f6:	c6 45 de 48          	movb   $0x48,-0x22(%rbp)
    17fa:	c6 45 df b8          	movb   $0xb8,-0x21(%rbp)
    17fe:	48 8d 45 c6          	lea    -0x3a(%rbp),%rax
    1802:	be 00 00 00 00       	mov    $0x0,%esi
    1807:	48 89 c7             	mov    %rax,%rdi
    180a:	e8 15 ff ff ff       	callq  1724 <_ZNSt5arrayIhLm8EEixEm>
    180f:	0f b6 00             	movzbl (%rax),%eax
    1812:	88 45 e0             	mov    %al,-0x20(%rbp)
    1815:	48 8d 45 c6          	lea    -0x3a(%rbp),%rax
    1819:	be 01 00 00 00       	mov    $0x1,%esi
    181e:	48 89 c7             	mov    %rax,%rdi
    1821:	e8 fe fe ff ff       	callq  1724 <_ZNSt5arrayIhLm8EEixEm>
    1826:	0f b6 00             	movzbl (%rax),%eax
    1829:	88 45 e1             	mov    %al,-0x1f(%rbp)
    182c:	48 8d 45 c6          	lea    -0x3a(%rbp),%rax
    1830:	be 02 00 00 00       	mov    $0x2,%esi
    1835:	48 89 c7             	mov    %rax,%rdi
    1838:	e8 e7 fe ff ff       	callq  1724 <_ZNSt5arrayIhLm8EEixEm>
    183d:	0f b6 00             	movzbl (%rax),%eax
    1840:	88 45 e2             	mov    %al,-0x1e(%rbp)
    1843:	48 8d 45 c6          	lea    -0x3a(%rbp),%rax
    1847:	be 03 00 00 00       	mov    $0x3,%esi
    184c:	48 89 c7             	mov    %rax,%rdi
    184f:	e8 d0 fe ff ff       	callq  1724 <_ZNSt5arrayIhLm8EEixEm>
    1854:	0f b6 00             	movzbl (%rax),%eax
    1857:	88 45 e3             	mov    %al,-0x1d(%rbp)
    185a:	48 8d 45 c6          	lea    -0x3a(%rbp),%rax
    185e:	be 04 00 00 00       	mov    $0x4,%esi
    1863:	48 89 c7             	mov    %rax,%rdi
    1866:	e8 b9 fe ff ff       	callq  1724 <_ZNSt5arrayIhLm8EEixEm>
    186b:	0f b6 00             	movzbl (%rax),%eax
    186e:	88 45 e4             	mov    %al,-0x1c(%rbp)
    1871:	48 8d 45 c6          	lea    -0x3a(%rbp),%rax
    1875:	be 05 00 00 00       	mov    $0x5,%esi
    187a:	48 89 c7             	mov    %rax,%rdi
    187d:	e8 a2 fe ff ff       	callq  1724 <_ZNSt5arrayIhLm8EEixEm>
    1882:	0f b6 00             	movzbl (%rax),%eax
    1885:	88 45 e5             	mov    %al,-0x1b(%rbp)
    1888:	48 8d 45 c6          	lea    -0x3a(%rbp),%rax
    188c:	be 06 00 00 00       	mov    $0x6,%esi
    1891:	48 89 c7             	mov    %rax,%rdi
    1894:	e8 8b fe ff ff       	callq  1724 <_ZNSt5arrayIhLm8EEixEm>
    1899:	0f b6 00             	movzbl (%rax),%eax
    189c:	88 45 e6             	mov    %al,-0x1a(%rbp)
    189f:	48 8d 45 c6          	lea    -0x3a(%rbp),%rax
    18a3:	be 07 00 00 00       	mov    $0x7,%esi
    18a8:	48 89 c7             	mov    %rax,%rdi
    18ab:	e8 74 fe ff ff       	callq  1724 <_ZNSt5arrayIhLm8EEixEm>
    18b0:	0f b6 00             	movzbl (%rax),%eax
    18b3:	88 45 e7             	mov    %al,-0x19(%rbp)
    18b6:	8b 45 94             	mov    -0x6c(%rbp),%eax
    18b9:	c1 e0 03             	shl    $0x3,%eax
    18bc:	89 45 a4             	mov    %eax,-0x5c(%rbp)
    18bf:	48 8d 35 6b 27 00 00 	lea    0x276b(%rip),%rsi        # 4031 <_IO_stdin_used+0x31>
    18c6:	48 8d 3d 73 57 00 00 	lea    0x5773(%rip),%rdi        # 7040 <_ZSt4cout@@GLIBCXX_3.4>
    18cd:	e8 3e f9 ff ff       	callq  1210 <_ZStlsISt11char_traitsIcEERSt13basic_ostreamIcT_ES5_PKc@plt>
    18d2:	48 89 c2             	mov    %rax,%rdx
    18d5:	48 8d 05 84 58 00 00 	lea    0x5884(%rip),%rax        # 7160 <address_lookup>
    18dc:	48 89 c6             	mov    %rax,%rsi
    18df:	48 89 d7             	mov    %rdx,%rdi
    18e2:	e8 e9 f9 ff ff       	callq  12d0 <_ZNSolsEl@plt>
    18e7:	48 89 c2             	mov    %rax,%rdx
    18ea:	48 8b 05 df 56 00 00 	mov    0x56df(%rip),%rax        # 6fd0 <_ZSt4endlIcSt11char_traitsIcEERSt13basic_ostreamIT_T0_ES6_@GLIBCXX_3.4>
    18f1:	48 89 c6             	mov    %rax,%rsi
    18f4:	48 89 d7             	mov    %rdx,%rdi
    18f7:	e8 34 f9 ff ff       	callq  1230 <_ZNSolsEPFRSoS_E@plt>
    18fc:	8b 45 a4             	mov    -0x5c(%rbp),%eax
    18ff:	89 c7                	mov    %eax,%edi
    1901:	e8 52 03 00 00       	callq  1c58 <_ZN11JITCompiler13little_endianILm4EjEESt5arrayIhXT_EET0_>
    1906:	89 45 be             	mov    %eax,-0x42(%rbp)
    1909:	c7 45 d8 00 00 00 00 	movl   $0x0,-0x28(%rbp)
    1910:	66 c7 45 dc 00 00    	movw   $0x0,-0x24(%rbp)
    1916:	c6 45 d8 48          	movb   $0x48,-0x28(%rbp)
    191a:	c6 45 d9 05          	movb   $0x5,-0x27(%rbp)
    191e:	48 8d 45 be          	lea    -0x42(%rbp),%rax
    1922:	be 00 00 00 00       	mov    $0x0,%esi
    1927:	48 89 c7             	mov    %rax,%rdi
    192a:	e8 3b fe ff ff       	callq  176a <_ZNSt5arrayIhLm4EEixEm>
    192f:	0f b6 00             	movzbl (%rax),%eax
    1932:	88 45 da             	mov    %al,-0x26(%rbp)
    1935:	48 8d 45 be          	lea    -0x42(%rbp),%rax
    1939:	be 01 00 00 00       	mov    $0x1,%esi
    193e:	48 89 c7             	mov    %rax,%rdi
    1941:	e8 24 fe ff ff       	callq  176a <_ZNSt5arrayIhLm4EEixEm>
    1946:	0f b6 00             	movzbl (%rax),%eax
    1949:	88 45 db             	mov    %al,-0x25(%rbp)
    194c:	48 8d 45 be          	lea    -0x42(%rbp),%rax
    1950:	be 02 00 00 00       	mov    $0x2,%esi
    1955:	48 89 c7             	mov    %rax,%rdi
    1958:	e8 0d fe ff ff       	callq  176a <_ZNSt5arrayIhLm4EEixEm>
    195d:	0f b6 00             	movzbl (%rax),%eax
    1960:	88 45 dc             	mov    %al,-0x24(%rbp)
    1963:	48 8d 45 be          	lea    -0x42(%rbp),%rax
    1967:	be 03 00 00 00       	mov    $0x3,%esi
    196c:	48 89 c7             	mov    %rax,%rdi
    196f:	e8 f6 fd ff ff       	callq  176a <_ZNSt5arrayIhLm4EEixEm>
    1974:	0f b6 00             	movzbl (%rax),%eax
    1977:	88 45 dd             	mov    %al,-0x23(%rbp)
    197a:	66 c7 45 d0 48 8b    	movw   $0x8b48,-0x30(%rbp)
    1980:	c6 45 d2 18          	movb   $0x18,-0x2e(%rbp)
    1984:	8b 45 94             	mov    -0x6c(%rbp),%eax
    1987:	89 c7                	mov    %eax,%edi
    1989:	e8 ca 02 00 00       	callq  1c58 <_ZN11JITCompiler13little_endianILm4EjEESt5arrayIhXT_EET0_>
    198e:	89 45 c2             	mov    %eax,-0x3e(%rbp)
    1991:	c7 45 d3 00 00 00 00 	movl   $0x0,-0x2d(%rbp)
    1998:	c6 45 d7 00          	movb   $0x0,-0x29(%rbp)
    199c:	c6 45 d3 b9          	movb   $0xb9,-0x2d(%rbp)
    19a0:	48 8d 45 c2          	lea    -0x3e(%rbp),%rax
    19a4:	be 00 00 00 00       	mov    $0x0,%esi
    19a9:	48 89 c7             	mov    %rax,%rdi
    19ac:	e8 b9 fd ff ff       	callq  176a <_ZNSt5arrayIhLm4EEixEm>
    19b1:	0f b6 00             	movzbl (%rax),%eax
    19b4:	88 45 d4             	mov    %al,-0x2c(%rbp)
    19b7:	48 8d 45 c2          	lea    -0x3e(%rbp),%rax
    19bb:	be 01 00 00 00       	mov    $0x1,%esi
    19c0:	48 89 c7             	mov    %rax,%rdi
    19c3:	e8 a2 fd ff ff       	callq  176a <_ZNSt5arrayIhLm4EEixEm>
    19c8:	0f b6 00             	movzbl (%rax),%eax
    19cb:	88 45 d5             	mov    %al,-0x2b(%rbp)
    19ce:	48 8d 45 c2          	lea    -0x3e(%rbp),%rax
    19d2:	be 02 00 00 00       	mov    $0x2,%esi
    19d7:	48 89 c7             	mov    %rax,%rdi
    19da:	e8 8b fd ff ff       	callq  176a <_ZNSt5arrayIhLm4EEixEm>
    19df:	0f b6 00             	movzbl (%rax),%eax
    19e2:	88 45 d6             	mov    %al,-0x2a(%rbp)
    19e5:	48 8d 45 c2          	lea    -0x3e(%rbp),%rax
    19e9:	be 03 00 00 00       	mov    $0x3,%esi
    19ee:	48 89 c7             	mov    %rax,%rdi
    19f1:	e8 74 fd ff ff       	callq  176a <_ZNSt5arrayIhLm4EEixEm>
    19f6:	0f b6 00             	movzbl (%rax),%eax
    19f9:	88 45 d7             	mov    %al,-0x29(%rbp)
    19fc:	66 c7 45 ce ff d3    	movw   $0xd3ff,-0x32(%rbp)
    1a02:	48 8d 45 de          	lea    -0x22(%rbp),%rax
    1a06:	48 89 c7             	mov    %rax,%rdi
    1a09:	e8 34 03 00 00       	callq  1d42 <_ZSt3endIhLm10EEPT_RAT0__S0_>
    1a0e:	49 89 c4             	mov    %rax,%r12
    1a11:	48 8d 45 de          	lea    -0x22(%rbp),%rax
    1a15:	48 89 c7             	mov    %rax,%rdi
    1a18:	e8 13 03 00 00       	callq  1d30 <_ZSt5beginIhLm10EEPT_RAT0__S0_>
    1a1d:	48 89 c3             	mov    %rax,%rbx
    1a20:	48 8b 45 98          	mov    -0x68(%rbp),%rax
    1a24:	48 89 c7             	mov    %rax,%rdi
    1a27:	e8 b4 02 00 00       	callq  1ce0 <_ZNSt6vectorIhSaIhEE3endEv>
    1a2c:	48 89 45 a8          	mov    %rax,-0x58(%rbp)
    1a30:	48 8d 55 a8          	lea    -0x58(%rbp),%rdx
    1a34:	48 8d 45 b0          	lea    -0x50(%rbp),%rax
    1a38:	48 89 d6             	mov    %rdx,%rsi
    1a3b:	48 89 c7             	mov    %rax,%rdi
    1a3e:	e8 15 03 00 00       	callq  1d58 <_ZN9__gnu_cxx17__normal_iteratorIPKhSt6vectorIhSaIhEEEC1IPhEERKNS0_IT_NS_11__enable_ifIXsrSt10__are_sameIS9_S8_E7__valueES5_E6__typeEEE>
    1a43:	48 8b 75 b0          	mov    -0x50(%rbp),%rsi
    1a47:	48 8b 45 98          	mov    -0x68(%rbp),%rax
    1a4b:	4c 89 e1             	mov    %r12,%rcx
    1a4e:	48 89 da             	mov    %rbx,%rdx
    1a51:	48 89 c7             	mov    %rax,%rdi
    1a54:	e8 2d 03 00 00       	callq  1d86 <_ZNSt6vectorIhSaIhEE6insertIPhvEEN9__gnu_cxx17__normal_iteratorIS3_S1_EENS5_IPKhS1_EET_SA_>
    1a59:	48 8d 45 d8          	lea    -0x28(%rbp),%rax
    1a5d:	48 89 c7             	mov    %rax,%rdi
    1a60:	e8 f8 03 00 00       	callq  1e5d <_ZSt3endIhLm6EEPT_RAT0__S0_>
    1a65:	49 89 c4             	mov    %rax,%r12
    1a68:	48 8d 45 d8          	lea    -0x28(%rbp),%rax
    1a6c:	48 89 c7             	mov    %rax,%rdi
    1a6f:	e8 d7 03 00 00       	callq  1e4b <_ZSt5beginIhLm6EEPT_RAT0__S0_>
    1a74:	48 89 c3             	mov    %rax,%rbx
    1a77:	48 8b 45 98          	mov    -0x68(%rbp),%rax
    1a7b:	48 89 c7             	mov    %rax,%rdi
    1a7e:	e8 5d 02 00 00       	callq  1ce0 <_ZNSt6vectorIhSaIhEE3endEv>
    1a83:	48 89 45 a8          	mov    %rax,-0x58(%rbp)
    1a87:	48 8d 55 a8          	lea    -0x58(%rbp),%rdx
    1a8b:	48 8d 45 b0          	lea    -0x50(%rbp),%rax
    1a8f:	48 89 d6             	mov    %rdx,%rsi
    1a92:	48 89 c7             	mov    %rax,%rdi
    1a95:	e8 be 02 00 00       	callq  1d58 <_ZN9__gnu_cxx17__normal_iteratorIPKhSt6vectorIhSaIhEEEC1IPhEERKNS0_IT_NS_11__enable_ifIXsrSt10__are_sameIS9_S8_E7__valueES5_E6__typeEEE>
    1a9a:	48 8b 75 b0          	mov    -0x50(%rbp),%rsi
    1a9e:	48 8b 45 98          	mov    -0x68(%rbp),%rax
    1aa2:	4c 89 e1             	mov    %r12,%rcx
    1aa5:	48 89 da             	mov    %rbx,%rdx
    1aa8:	48 89 c7             	mov    %rax,%rdi
    1aab:	e8 d6 02 00 00       	callq  1d86 <_ZNSt6vectorIhSaIhEE6insertIPhvEEN9__gnu_cxx17__normal_iteratorIS3_S1_EENS5_IPKhS1_EET_SA_>
    1ab0:	48 8d 45 d0          	lea    -0x30(%rbp),%rax
    1ab4:	48 89 c7             	mov    %rax,%rdi
    1ab7:	e8 c9 03 00 00       	callq  1e85 <_ZSt3endIhLm3EEPT_RAT0__S0_>
    1abc:	49 89 c4             	mov    %rax,%r12
    1abf:	48 8d 45 d0          	lea    -0x30(%rbp),%rax
    1ac3:	48 89 c7             	mov    %rax,%rdi
    1ac6:	e8 a8 03 00 00       	callq  1e73 <_ZSt5beginIhLm3EEPT_RAT0__S0_>
    1acb:	48 89 c3             	mov    %rax,%rbx
    1ace:	48 8b 45 98          	mov    -0x68(%rbp),%rax
    1ad2:	48 89 c7             	mov    %rax,%rdi
    1ad5:	e8 06 02 00 00       	callq  1ce0 <_ZNSt6vectorIhSaIhEE3endEv>
    1ada:	48 89 45 a8          	mov    %rax,-0x58(%rbp)
    1ade:	48 8d 55 a8          	lea    -0x58(%rbp),%rdx
    1ae2:	48 8d 45 b0          	lea    -0x50(%rbp),%rax
    1ae6:	48 89 d6             	mov    %rdx,%rsi
    1ae9:	48 89 c7             	mov    %rax,%rdi
    1aec:	e8 67 02 00 00       	callq  1d58 <_ZN9__gnu_cxx17__normal_iteratorIPKhSt6vectorIhSaIhEEEC1IPhEERKNS0_IT_NS_11__enable_ifIXsrSt10__are_sameIS9_S8_E7__valueES5_E6__typeEEE>
    1af1:	48 8b 75 b0          	mov    -0x50(%rbp),%rsi
    1af5:	48 8b 45 98          	mov    -0x68(%rbp),%rax
    1af9:	4c 89 e1             	mov    %r12,%rcx
    1afc:	48 89 da             	mov    %rbx,%rdx
    1aff:	48 89 c7             	mov    %rax,%rdi
    1b02:	e8 7f 02 00 00       	callq  1d86 <_ZNSt6vectorIhSaIhEE6insertIPhvEEN9__gnu_cxx17__normal_iteratorIS3_S1_EENS5_IPKhS1_EET_SA_>
    1b07:	48 8d 45 d3          	lea    -0x2d(%rbp),%rax
    1b0b:	48 89 c7             	mov    %rax,%rdi
    1b0e:	e8 9a 03 00 00       	callq  1ead <_ZSt3endIhLm5EEPT_RAT0__S0_>
    1b13:	49 89 c4             	mov    %rax,%r12
    1b16:	48 8d 45 d3          	lea    -0x2d(%rbp),%rax
    1b1a:	48 89 c7             	mov    %rax,%rdi
    1b1d:	e8 79 03 00 00       	callq  1e9b <_ZSt5beginIhLm5EEPT_RAT0__S0_>
    1b22:	48 89 c3             	mov    %rax,%rbx
    1b25:	48 8b 45 98          	mov    -0x68(%rbp),%rax
    1b29:	48 89 c7             	mov    %rax,%rdi
    1b2c:	e8 af 01 00 00       	callq  1ce0 <_ZNSt6vectorIhSaIhEE3endEv>
    1b31:	48 89 45 a8          	mov    %rax,-0x58(%rbp)
    1b35:	48 8d 55 a8          	lea    -0x58(%rbp),%rdx
    1b39:	48 8d 45 b0          	lea    -0x50(%rbp),%rax
    1b3d:	48 89 d6             	mov    %rdx,%rsi
    1b40:	48 89 c7             	mov    %rax,%rdi
    1b43:	e8 10 02 00 00       	callq  1d58 <_ZN9__gnu_cxx17__normal_iteratorIPKhSt6vectorIhSaIhEEEC1IPhEERKNS0_IT_NS_11__enable_ifIXsrSt10__are_sameIS9_S8_E7__valueES5_E6__typeEEE>
    1b48:	48 8b 75 b0          	mov    -0x50(%rbp),%rsi
    1b4c:	48 8b 45 98          	mov    -0x68(%rbp),%rax
    1b50:	4c 89 e1             	mov    %r12,%rcx
    1b53:	48 89 da             	mov    %rbx,%rdx
    1b56:	48 89 c7             	mov    %rax,%rdi
    1b59:	e8 28 02 00 00       	callq  1d86 <_ZNSt6vectorIhSaIhEE6insertIPhvEEN9__gnu_cxx17__normal_iteratorIS3_S1_EENS5_IPKhS1_EET_SA_>
    1b5e:	90                   	nop
    1b5f:	48 8b 45 e8          	mov    -0x18(%rbp),%rax
    1b63:	64 48 33 04 25 28 00 	xor    %fs:0x28,%rax
    1b6a:	00 00 
    1b6c:	74 05                	je     1b73 <_ZN11JITCompiler20emit_invocation_codeERSt6vectorIhSaIhEEj+0x3c3>
    1b6e:	e8 cd f6 ff ff       	callq  1240 <__stack_chk_fail@plt>
    1b73:	48 83 c4 60          	add    $0x60,%rsp
    1b77:	5b                   	pop    %rbx
    1b78:	41 5c                	pop    %r12
    1b7a:	5d                   	pop    %rbp
    1b7b:	c3                   	retq   

0000000000001b7c <_ZNSt12_Vector_baseIhSaIhEE12_Vector_implD1Ev>:
    1b7c:	f3 0f 1e fa          	endbr64 
    1b80:	55                   	push   %rbp
    1b81:	48 89 e5             	mov    %rsp,%rbp
    1b84:	48 83 ec 10          	sub    $0x10,%rsp
    1b88:	48 89 7d f8          	mov    %rdi,-0x8(%rbp)
    1b8c:	48 8b 45 f8          	mov    -0x8(%rbp),%rax
    1b90:	48 89 c7             	mov    %rax,%rdi
    1b93:	e8 58 03 00 00       	callq  1ef0 <_ZNSaIhED1Ev>
    1b98:	90                   	nop
    1b99:	c9                   	leaveq 
    1b9a:	c3                   	retq   
    1b9b:	90                   	nop

0000000000001b9c <_ZNSt12_Vector_baseIhSaIhEEC1Ev>:
    1b9c:	f3 0f 1e fa          	endbr64 
    1ba0:	55                   	push   %rbp
    1ba1:	48 89 e5             	mov    %rsp,%rbp
    1ba4:	48 83 ec 10          	sub    $0x10,%rsp
    1ba8:	48 89 7d f8          	mov    %rdi,-0x8(%rbp)
    1bac:	48 8b 45 f8          	mov    -0x8(%rbp),%rax
    1bb0:	48 89 c7             	mov    %rax,%rdi
    1bb3:	e8 0c 03 00 00       	callq  1ec4 <_ZNSt12_Vector_baseIhSaIhEE12_Vector_implC1Ev>
    1bb8:	90                   	nop
    1bb9:	c9                   	leaveq 
    1bba:	c3                   	retq   
    1bbb:	90                   	nop

0000000000001bbc <_ZNSt6vectorIhSaIhEEC1Ev>:
    1bbc:	f3 0f 1e fa          	endbr64 
    1bc0:	55                   	push   %rbp
    1bc1:	48 89 e5             	mov    %rsp,%rbp
    1bc4:	48 83 ec 10          	sub    $0x10,%rsp
    1bc8:	48 89 7d f8          	mov    %rdi,-0x8(%rbp)
    1bcc:	48 8b 45 f8          	mov    -0x8(%rbp),%rax
    1bd0:	48 89 c7             	mov    %rax,%rdi
    1bd3:	e8 c4 ff ff ff       	callq  1b9c <_ZNSt12_Vector_baseIhSaIhEEC1Ev>
    1bd8:	90                   	nop
    1bd9:	c9                   	leaveq 
    1bda:	c3                   	retq   

0000000000001bdb <_ZN11JITCompiler13little_endianILm8ElEESt5arrayIhXT_EET0_>:
    1bdb:	f3 0f 1e fa          	endbr64 
    1bdf:	55                   	push   %rbp
    1be0:	48 89 e5             	mov    %rsp,%rbp
    1be3:	53                   	push   %rbx
    1be4:	48 83 ec 38          	sub    $0x38,%rsp
    1be8:	48 89 7d c8          	mov    %rdi,-0x38(%rbp)
    1bec:	64 48 8b 04 25 28 00 	mov    %fs:0x28,%rax
    1bf3:	00 00 
    1bf5:	48 89 45 e8          	mov    %rax,-0x18(%rbp)
    1bf9:	31 c0                	xor    %eax,%eax
    1bfb:	48 c7 45 e0 00 00 00 	movq   $0x0,-0x20(%rbp)
    1c02:	00 
    1c03:	48 c7 45 d8 00 00 00 	movq   $0x0,-0x28(%rbp)
    1c0a:	00 
    1c0b:	48 83 7d d8 07       	cmpq   $0x7,-0x28(%rbp)
    1c10:	77 27                	ja     1c39 <_ZN11JITCompiler13little_endianILm8ElEESt5arrayIhXT_EET0_+0x5e>
    1c12:	48 8b 45 c8          	mov    -0x38(%rbp),%rax
    1c16:	89 c3                	mov    %eax,%ebx
    1c18:	48 8b 55 d8          	mov    -0x28(%rbp),%rdx
    1c1c:	48 8d 45 e0          	lea    -0x20(%rbp),%rax
    1c20:	48 89 d6             	mov    %rdx,%rsi
    1c23:	48 89 c7             	mov    %rax,%rdi
    1c26:	e8 f9 fa ff ff       	callq  1724 <_ZNSt5arrayIhLm8EEixEm>
    1c2b:	88 18                	mov    %bl,(%rax)
    1c2d:	48 c1 7d c8 08       	sarq   $0x8,-0x38(%rbp)
    1c32:	48 83 45 d8 01       	addq   $0x1,-0x28(%rbp)
    1c37:	eb d2                	jmp    1c0b <_ZN11JITCompiler13little_endianILm8ElEESt5arrayIhXT_EET0_+0x30>
    1c39:	48 8b 45 e0          	mov    -0x20(%rbp),%rax
    1c3d:	48 8b 4d e8          	mov    -0x18(%rbp),%rcx
    1c41:	64 48 33 0c 25 28 00 	xor    %fs:0x28,%rcx
    1c48:	00 00 
    1c4a:	74 05                	je     1c51 <_ZN11JITCompiler13little_endianILm8ElEESt5arrayIhXT_EET0_+0x76>
    1c4c:	e8 ef f5 ff ff       	callq  1240 <__stack_chk_fail@plt>
    1c51:	48 83 c4 38          	add    $0x38,%rsp
    1c55:	5b                   	pop    %rbx
    1c56:	5d                   	pop    %rbp
    1c57:	c3                   	retq   

0000000000001c58 <_ZN11JITCompiler13little_endianILm4EjEESt5arrayIhXT_EET0_>:
    1c58:	f3 0f 1e fa          	endbr64 
    1c5c:	55                   	push   %rbp
    1c5d:	48 89 e5             	mov    %rsp,%rbp
    1c60:	53                   	push   %rbx
    1c61:	48 83 ec 38          	sub    $0x38,%rsp
    1c65:	89 7d cc             	mov    %edi,-0x34(%rbp)
    1c68:	64 48 8b 04 25 28 00 	mov    %fs:0x28,%rax
    1c6f:	00 00 
    1c71:	48 89 45 e8          	mov    %rax,-0x18(%rbp)
    1c75:	31 c0                	xor    %eax,%eax
    1c77:	b8 00 00 00 00       	mov    $0x0,%eax
    1c7c:	c6 44 05 e4 00       	movb   $0x0,-0x1c(%rbp,%rax,1)
    1c81:	48 83 f8 03          	cmp    $0x3,%rax
    1c85:	74 06                	je     1c8d <_ZN11JITCompiler13little_endianILm4EjEESt5arrayIhXT_EET0_+0x35>
    1c87:	48 83 c0 01          	add    $0x1,%rax
    1c8b:	eb ef                	jmp    1c7c <_ZN11JITCompiler13little_endianILm4EjEESt5arrayIhXT_EET0_+0x24>
    1c8d:	48 c7 45 d8 00 00 00 	movq   $0x0,-0x28(%rbp)
    1c94:	00 
    1c95:	48 83 7d d8 03       	cmpq   $0x3,-0x28(%rbp)
    1c9a:	77 25                	ja     1cc1 <_ZN11JITCompiler13little_endianILm4EjEESt5arrayIhXT_EET0_+0x69>
    1c9c:	8b 45 cc             	mov    -0x34(%rbp),%eax
    1c9f:	89 c3                	mov    %eax,%ebx
    1ca1:	48 8b 55 d8          	mov    -0x28(%rbp),%rdx
    1ca5:	48 8d 45 e4          	lea    -0x1c(%rbp),%rax
    1ca9:	48 89 d6             	mov    %rdx,%rsi
    1cac:	48 89 c7             	mov    %rax,%rdi
    1caf:	e8 b6 fa ff ff       	callq  176a <_ZNSt5arrayIhLm4EEixEm>
    1cb4:	88 18                	mov    %bl,(%rax)
    1cb6:	c1 6d cc 08          	shrl   $0x8,-0x34(%rbp)
    1cba:	48 83 45 d8 01       	addq   $0x1,-0x28(%rbp)
    1cbf:	eb d4                	jmp    1c95 <_ZN11JITCompiler13little_endianILm4EjEESt5arrayIhXT_EET0_+0x3d>
    1cc1:	8b 45 e4             	mov    -0x1c(%rbp),%eax
    1cc4:	48 8b 4d e8          	mov    -0x18(%rbp),%rcx
    1cc8:	64 48 33 0c 25 28 00 	xor    %fs:0x28,%rcx
    1ccf:	00 00 
    1cd1:	74 05                	je     1cd8 <_ZN11JITCompiler13little_endianILm4EjEESt5arrayIhXT_EET0_+0x80>
    1cd3:	e8 68 f5 ff ff       	callq  1240 <__stack_chk_fail@plt>
    1cd8:	48 83 c4 38          	add    $0x38,%rsp
    1cdc:	5b                   	pop    %rbx
    1cdd:	5d                   	pop    %rbp
    1cde:	c3                   	retq   
    1cdf:	90                   	nop

0000000000001ce0 <_ZNSt6vectorIhSaIhEE3endEv>:
    1ce0:	f3 0f 1e fa          	endbr64 
    1ce4:	55                   	push   %rbp
    1ce5:	48 89 e5             	mov    %rsp,%rbp
    1ce8:	48 83 ec 20          	sub    $0x20,%rsp
    1cec:	48 89 7d e8          	mov    %rdi,-0x18(%rbp)
    1cf0:	64 48 8b 04 25 28 00 	mov    %fs:0x28,%rax
    1cf7:	00 00 
    1cf9:	48 89 45 f8          	mov    %rax,-0x8(%rbp)
    1cfd:	31 c0                	xor    %eax,%eax
    1cff:	48 8b 45 e8          	mov    -0x18(%rbp),%rax
    1d03:	48 8d 50 08          	lea    0x8(%rax),%rdx
    1d07:	48 8d 45 f0          	lea    -0x10(%rbp),%rax
    1d0b:	48 89 d6             	mov    %rdx,%rsi
    1d0e:	48 89 c7             	mov    %rax,%rdi
    1d11:	e8 30 04 00 00       	callq  2146 <_ZN9__gnu_cxx17__normal_iteratorIPhSt6vectorIhSaIhEEEC1ERKS1_>
    1d16:	48 8b 45 f0          	mov    -0x10(%rbp),%rax
    1d1a:	48 8b 4d f8          	mov    -0x8(%rbp),%rcx
    1d1e:	64 48 33 0c 25 28 00 	xor    %fs:0x28,%rcx
    1d25:	00 00 
    1d27:	74 05                	je     1d2e <_ZNSt6vectorIhSaIhEE3endEv+0x4e>
    1d29:	e8 12 f5 ff ff       	callq  1240 <__stack_chk_fail@plt>
    1d2e:	c9                   	leaveq 
    1d2f:	c3                   	retq   

0000000000001d30 <_ZSt5beginIhLm10EEPT_RAT0__S0_>:
    1d30:	f3 0f 1e fa          	endbr64 
    1d34:	55                   	push   %rbp
    1d35:	48 89 e5             	mov    %rsp,%rbp
    1d38:	48 89 7d f8          	mov    %rdi,-0x8(%rbp)
    1d3c:	48 8b 45 f8          	mov    -0x8(%rbp),%rax
    1d40:	5d                   	pop    %rbp
    1d41:	c3                   	retq   

0000000000001d42 <_ZSt3endIhLm10EEPT_RAT0__S0_>:
    1d42:	f3 0f 1e fa          	endbr64 
    1d46:	55                   	push   %rbp
    1d47:	48 89 e5             	mov    %rsp,%rbp
    1d4a:	48 89 7d f8          	mov    %rdi,-0x8(%rbp)
    1d4e:	48 8b 45 f8          	mov    -0x8(%rbp),%rax
    1d52:	48 83 c0 0a          	add    $0xa,%rax
    1d56:	5d                   	pop    %rbp
    1d57:	c3                   	retq   

0000000000001d58 <_ZN9__gnu_cxx17__normal_iteratorIPKhSt6vectorIhSaIhEEEC1IPhEERKNS0_IT_NS_11__enable_ifIXsrSt10__are_sameIS9_S8_E7__valueES5_E6__typeEEE>:
    1d58:	f3 0f 1e fa          	endbr64 
    1d5c:	55                   	push   %rbp
    1d5d:	48 89 e5             	mov    %rsp,%rbp
    1d60:	48 83 ec 10          	sub    $0x10,%rsp
    1d64:	48 89 7d f8          	mov    %rdi,-0x8(%rbp)
    1d68:	48 89 75 f0          	mov    %rsi,-0x10(%rbp)
    1d6c:	48 8b 45 f0          	mov    -0x10(%rbp),%rax
    1d70:	48 89 c7             	mov    %rax,%rdi
    1d73:	e8 f0 03 00 00       	callq  2168 <_ZNK9__gnu_cxx17__normal_iteratorIPhSt6vectorIhSaIhEEE4baseEv>
    1d78:	48 8b 10             	mov    (%rax),%rdx
    1d7b:	48 8b 45 f8          	mov    -0x8(%rbp),%rax
    1d7f:	48 89 10             	mov    %rdx,(%rax)
    1d82:	90                   	nop
    1d83:	c9                   	leaveq 
    1d84:	c3                   	retq   
    1d85:	90                   	nop

0000000000001d86 <_ZNSt6vectorIhSaIhEE6insertIPhvEEN9__gnu_cxx17__normal_iteratorIS3_S1_EENS5_IPKhS1_EET_SA_>:
    1d86:	f3 0f 1e fa          	endbr64 
    1d8a:	55                   	push   %rbp
    1d8b:	48 89 e5             	mov    %rsp,%rbp
    1d8e:	48 83 ec 40          	sub    $0x40,%rsp
    1d92:	48 89 7d d8          	mov    %rdi,-0x28(%rbp)
    1d96:	48 89 75 d0          	mov    %rsi,-0x30(%rbp)
    1d9a:	48 89 55 c8          	mov    %rdx,-0x38(%rbp)
    1d9e:	48 89 4d c0          	mov    %rcx,-0x40(%rbp)
    1da2:	64 48 8b 04 25 28 00 	mov    %fs:0x28,%rax
    1da9:	00 00 
    1dab:	48 89 45 f8          	mov    %rax,-0x8(%rbp)
    1daf:	31 c0                	xor    %eax,%eax
    1db1:	48 8b 45 d8          	mov    -0x28(%rbp),%rax
    1db5:	48 89 c7             	mov    %rax,%rdi
    1db8:	e8 bd 03 00 00       	callq  217a <_ZNKSt6vectorIhSaIhEE6cbeginEv>
    1dbd:	48 89 45 e8          	mov    %rax,-0x18(%rbp)
    1dc1:	48 8d 55 e8          	lea    -0x18(%rbp),%rdx
    1dc5:	48 8d 45 d0          	lea    -0x30(%rbp),%rax
    1dc9:	48 89 d6             	mov    %rdx,%rsi
    1dcc:	48 89 c7             	mov    %rax,%rdi
    1dcf:	e8 fd 03 00 00       	callq  21d1 <_ZN9__gnu_cxxmiIPKhSt6vectorIhSaIhEEEENS_17__normal_iteratorIT_T0_E15difference_typeERKS9_SC_>
    1dd4:	48 89 45 f0          	mov    %rax,-0x10(%rbp)
    1dd8:	48 8b 45 d8          	mov    -0x28(%rbp),%rax
    1ddc:	48 89 c7             	mov    %rax,%rdi
    1ddf:	e8 f8 01 00 00       	callq  1fdc <_ZNSt6vectorIhSaIhEE5beginEv>
    1de4:	48 89 45 e8          	mov    %rax,-0x18(%rbp)
    1de8:	48 8b 55 f0          	mov    -0x10(%rbp),%rdx
    1dec:	48 8d 45 e8          	lea    -0x18(%rbp),%rax
    1df0:	48 89 d6             	mov    %rdx,%rsi
    1df3:	48 89 c7             	mov    %rax,%rdi
    1df6:	e8 17 04 00 00       	callq  2212 <_ZNK9__gnu_cxx17__normal_iteratorIPhSt6vectorIhSaIhEEEplEl>
    1dfb:	48 89 c6             	mov    %rax,%rsi
    1dfe:	48 8b 4d c0          	mov    -0x40(%rbp),%rcx
    1e02:	48 8b 55 c8          	mov    -0x38(%rbp),%rdx
    1e06:	48 8b 45 d8          	mov    -0x28(%rbp),%rax
    1e0a:	48 89 c7             	mov    %rax,%rdi
    1e0d:	e8 62 04 00 00       	callq  2274 <_ZNSt6vectorIhSaIhEE18_M_insert_dispatchIPhEEvN9__gnu_cxx17__normal_iteratorIS3_S1_EET_S7_St12__false_type>
    1e12:	48 8b 45 d8          	mov    -0x28(%rbp),%rax
    1e16:	48 89 c7             	mov    %rax,%rdi
    1e19:	e8 be 01 00 00       	callq  1fdc <_ZNSt6vectorIhSaIhEE5beginEv>
    1e1e:	48 89 45 e8          	mov    %rax,-0x18(%rbp)
    1e22:	48 8b 55 f0          	mov    -0x10(%rbp),%rdx
    1e26:	48 8d 45 e8          	lea    -0x18(%rbp),%rax
    1e2a:	48 89 d6             	mov    %rdx,%rsi
    1e2d:	48 89 c7             	mov    %rax,%rdi
    1e30:	e8 dd 03 00 00       	callq  2212 <_ZNK9__gnu_cxx17__normal_iteratorIPhSt6vectorIhSaIhEEEplEl>
    1e35:	48 8b 4d f8          	mov    -0x8(%rbp),%rcx
    1e39:	64 48 33 0c 25 28 00 	xor    %fs:0x28,%rcx
    1e40:	00 00 
    1e42:	74 05                	je     1e49 <_ZNSt6vectorIhSaIhEE6insertIPhvEEN9__gnu_cxx17__normal_iteratorIS3_S1_EENS5_IPKhS1_EET_SA_+0xc3>
    1e44:	e8 f7 f3 ff ff       	callq  1240 <__stack_chk_fail@plt>
    1e49:	c9                   	leaveq 
    1e4a:	c3                   	retq   

0000000000001e4b <_ZSt5beginIhLm6EEPT_RAT0__S0_>:
    1e4b:	f3 0f 1e fa          	endbr64 
    1e4f:	55                   	push   %rbp
    1e50:	48 89 e5             	mov    %rsp,%rbp
    1e53:	48 89 7d f8          	mov    %rdi,-0x8(%rbp)
    1e57:	48 8b 45 f8          	mov    -0x8(%rbp),%rax
    1e5b:	5d                   	pop    %rbp
    1e5c:	c3                   	retq   

0000000000001e5d <_ZSt3endIhLm6EEPT_RAT0__S0_>:
    1e5d:	f3 0f 1e fa          	endbr64 
    1e61:	55                   	push   %rbp
    1e62:	48 89 e5             	mov    %rsp,%rbp
    1e65:	48 89 7d f8          	mov    %rdi,-0x8(%rbp)
    1e69:	48 8b 45 f8          	mov    -0x8(%rbp),%rax
    1e6d:	48 83 c0 06          	add    $0x6,%rax
    1e71:	5d                   	pop    %rbp
    1e72:	c3                   	retq   

0000000000001e73 <_ZSt5beginIhLm3EEPT_RAT0__S0_>:
    1e73:	f3 0f 1e fa          	endbr64 
    1e77:	55                   	push   %rbp
    1e78:	48 89 e5             	mov    %rsp,%rbp
    1e7b:	48 89 7d f8          	mov    %rdi,-0x8(%rbp)
    1e7f:	48 8b 45 f8          	mov    -0x8(%rbp),%rax
    1e83:	5d                   	pop    %rbp
    1e84:	c3                   	retq   

0000000000001e85 <_ZSt3endIhLm3EEPT_RAT0__S0_>:
    1e85:	f3 0f 1e fa          	endbr64 
    1e89:	55                   	push   %rbp
    1e8a:	48 89 e5             	mov    %rsp,%rbp
    1e8d:	48 89 7d f8          	mov    %rdi,-0x8(%rbp)
    1e91:	48 8b 45 f8          	mov    -0x8(%rbp),%rax
    1e95:	48 83 c0 03          	add    $0x3,%rax
    1e99:	5d                   	pop    %rbp
    1e9a:	c3                   	retq   

0000000000001e9b <_ZSt5beginIhLm5EEPT_RAT0__S0_>:
    1e9b:	f3 0f 1e fa          	endbr64 
    1e9f:	55                   	push   %rbp
    1ea0:	48 89 e5             	mov    %rsp,%rbp
    1ea3:	48 89 7d f8          	mov    %rdi,-0x8(%rbp)
    1ea7:	48 8b 45 f8          	mov    -0x8(%rbp),%rax
    1eab:	5d                   	pop    %rbp
    1eac:	c3                   	retq   

0000000000001ead <_ZSt3endIhLm5EEPT_RAT0__S0_>:
    1ead:	f3 0f 1e fa          	endbr64 
    1eb1:	55                   	push   %rbp
    1eb2:	48 89 e5             	mov    %rsp,%rbp
    1eb5:	48 89 7d f8          	mov    %rdi,-0x8(%rbp)
    1eb9:	48 8b 45 f8          	mov    -0x8(%rbp),%rax
    1ebd:	48 83 c0 05          	add    $0x5,%rax
    1ec1:	5d                   	pop    %rbp
    1ec2:	c3                   	retq   
    1ec3:	90                   	nop

0000000000001ec4 <_ZNSt12_Vector_baseIhSaIhEE12_Vector_implC1Ev>:
    1ec4:	f3 0f 1e fa          	endbr64 
    1ec8:	55                   	push   %rbp
    1ec9:	48 89 e5             	mov    %rsp,%rbp
    1ecc:	48 83 ec 10          	sub    $0x10,%rsp
    1ed0:	48 89 7d f8          	mov    %rdi,-0x8(%rbp)
    1ed4:	48 8b 45 f8          	mov    -0x8(%rbp),%rax
    1ed8:	48 89 c7             	mov    %rax,%rdi
    1edb:	e8 fa 03 00 00       	callq  22da <_ZNSaIhEC1Ev>
    1ee0:	48 8b 45 f8          	mov    -0x8(%rbp),%rax
    1ee4:	48 89 c7             	mov    %rax,%rdi
    1ee7:	e8 0e 04 00 00       	callq  22fa <_ZNSt12_Vector_baseIhSaIhEE17_Vector_impl_dataC1Ev>
    1eec:	90                   	nop
    1eed:	c9                   	leaveq 
    1eee:	c3                   	retq   
    1eef:	90                   	nop

0000000000001ef0 <_ZNSaIhED1Ev>:
    1ef0:	f3 0f 1e fa          	endbr64 
    1ef4:	55                   	push   %rbp
    1ef5:	48 89 e5             	mov    %rsp,%rbp
    1ef8:	48 83 ec 10          	sub    $0x10,%rsp
    1efc:	48 89 7d f8          	mov    %rdi,-0x8(%rbp)
    1f00:	48 8b 45 f8          	mov    -0x8(%rbp),%rax
    1f04:	48 89 c7             	mov    %rax,%rdi
    1f07:	e8 20 04 00 00       	callq  232c <_ZN9__gnu_cxx13new_allocatorIhED1Ev>
    1f0c:	90                   	nop
    1f0d:	c9                   	leaveq 
    1f0e:	c3                   	retq   
    1f0f:	90                   	nop

0000000000001f10 <_ZNSt12_Vector_baseIhSaIhEED1Ev>:
    1f10:	f3 0f 1e fa          	endbr64 
    1f14:	55                   	push   %rbp
    1f15:	48 89 e5             	mov    %rsp,%rbp
    1f18:	48 83 ec 10          	sub    $0x10,%rsp
    1f1c:	48 89 7d f8          	mov    %rdi,-0x8(%rbp)
    1f20:	48 8b 45 f8          	mov    -0x8(%rbp),%rax
    1f24:	48 8b 50 10          	mov    0x10(%rax),%rdx
    1f28:	48 8b 45 f8          	mov    -0x8(%rbp),%rax
    1f2c:	48 8b 00             	mov    (%rax),%rax
    1f2f:	48 29 c2             	sub    %rax,%rdx
    1f32:	48 89 d0             	mov    %rdx,%rax
    1f35:	48 89 c2             	mov    %rax,%rdx
    1f38:	48 8b 45 f8          	mov    -0x8(%rbp),%rax
    1f3c:	48 8b 08             	mov    (%rax),%rcx
    1f3f:	48 8b 45 f8          	mov    -0x8(%rbp),%rax
    1f43:	48 89 ce             	mov    %rcx,%rsi
    1f46:	48 89 c7             	mov    %rax,%rdi
    1f49:	e8 ee 03 00 00       	callq  233c <_ZNSt12_Vector_baseIhSaIhEE13_M_deallocateEPhm>
    1f4e:	48 8b 45 f8          	mov    -0x8(%rbp),%rax
    1f52:	48 89 c7             	mov    %rax,%rdi
    1f55:	e8 22 fc ff ff       	callq  1b7c <_ZNSt12_Vector_baseIhSaIhEE12_Vector_implD1Ev>
    1f5a:	90                   	nop
    1f5b:	c9                   	leaveq 
    1f5c:	c3                   	retq   
    1f5d:	90                   	nop

0000000000001f5e <_ZNSt6vectorIhSaIhEED1Ev>:
    1f5e:	f3 0f 1e fa          	endbr64 
    1f62:	55                   	push   %rbp
    1f63:	48 89 e5             	mov    %rsp,%rbp
    1f66:	48 83 ec 10          	sub    $0x10,%rsp
    1f6a:	48 89 7d f8          	mov    %rdi,-0x8(%rbp)
    1f6e:	48 8b 45 f8          	mov    -0x8(%rbp),%rax
    1f72:	48 89 c7             	mov    %rax,%rdi
    1f75:	e8 fc 03 00 00       	callq  2376 <_ZNSt12_Vector_baseIhSaIhEE19_M_get_Tp_allocatorEv>
    1f7a:	48 89 c2             	mov    %rax,%rdx
    1f7d:	48 8b 45 f8          	mov    -0x8(%rbp),%rax
    1f81:	48 8b 48 08          	mov    0x8(%rax),%rcx
    1f85:	48 8b 45 f8          	mov    -0x8(%rbp),%rax
    1f89:	48 8b 00             	mov    (%rax),%rax
    1f8c:	48 89 ce             	mov    %rcx,%rsi
    1f8f:	48 89 c7             	mov    %rax,%rdi
    1f92:	e8 f1 03 00 00       	callq  2388 <_ZSt8_DestroyIPhhEvT_S1_RSaIT0_E>
    1f97:	48 8b 45 f8          	mov    -0x8(%rbp),%rax
    1f9b:	48 89 c7             	mov    %rax,%rdi
    1f9e:	e8 6d ff ff ff       	callq  1f10 <_ZNSt12_Vector_baseIhSaIhEED1Ev>
    1fa3:	90                   	nop
    1fa4:	c9                   	leaveq 
    1fa5:	c3                   	retq   

0000000000001fa6 <_ZNSt6vectorIhSaIhEE9push_backEOh>:
    1fa6:	f3 0f 1e fa          	endbr64 
    1faa:	55                   	push   %rbp
    1fab:	48 89 e5             	mov    %rsp,%rbp
    1fae:	48 83 ec 10          	sub    $0x10,%rsp
    1fb2:	48 89 7d f8          	mov    %rdi,-0x8(%rbp)
    1fb6:	48 89 75 f0          	mov    %rsi,-0x10(%rbp)
    1fba:	48 8b 45 f0          	mov    -0x10(%rbp),%rax
    1fbe:	48 89 c7             	mov    %rax,%rdi
    1fc1:	e8 f0 03 00 00       	callq  23b6 <_ZSt4moveIRhEONSt16remove_referenceIT_E4typeEOS2_>
    1fc6:	48 89 c2             	mov    %rax,%rdx
    1fc9:	48 8b 45 f8          	mov    -0x8(%rbp),%rax
    1fcd:	48 89 d6             	mov    %rdx,%rsi
    1fd0:	48 89 c7             	mov    %rax,%rdi
    1fd3:	e8 f0 03 00 00       	callq  23c8 <_ZNSt6vectorIhSaIhEE12emplace_backIJhEEERhDpOT_>
    1fd8:	90                   	nop
    1fd9:	c9                   	leaveq 
    1fda:	c3                   	retq   
    1fdb:	90                   	nop

0000000000001fdc <_ZNSt6vectorIhSaIhEE5beginEv>:
    1fdc:	f3 0f 1e fa          	endbr64 
    1fe0:	55                   	push   %rbp
    1fe1:	48 89 e5             	mov    %rsp,%rbp
    1fe4:	48 83 ec 20          	sub    $0x20,%rsp
    1fe8:	48 89 7d e8          	mov    %rdi,-0x18(%rbp)
    1fec:	64 48 8b 04 25 28 00 	mov    %fs:0x28,%rax
    1ff3:	00 00 
    1ff5:	48 89 45 f8          	mov    %rax,-0x8(%rbp)
    1ff9:	31 c0                	xor    %eax,%eax
    1ffb:	48 8b 55 e8          	mov    -0x18(%rbp),%rdx
    1fff:	48 8d 45 f0          	lea    -0x10(%rbp),%rax
    2003:	48 89 d6             	mov    %rdx,%rsi
    2006:	48 89 c7             	mov    %rax,%rdi
    2009:	e8 38 01 00 00       	callq  2146 <_ZN9__gnu_cxx17__normal_iteratorIPhSt6vectorIhSaIhEEEC1ERKS1_>
    200e:	48 8b 45 f0          	mov    -0x10(%rbp),%rax
    2012:	48 8b 4d f8          	mov    -0x8(%rbp),%rcx
    2016:	64 48 33 0c 25 28 00 	xor    %fs:0x28,%rcx
    201d:	00 00 
    201f:	74 05                	je     2026 <_ZNSt6vectorIhSaIhEE5beginEv+0x4a>
    2021:	e8 1a f2 ff ff       	callq  1240 <__stack_chk_fail@plt>
    2026:	c9                   	leaveq 
    2027:	c3                   	retq   

0000000000002028 <_ZN9__gnu_cxxneIPhSt6vectorIhSaIhEEEEbRKNS_17__normal_iteratorIT_T0_EESA_>:
    2028:	f3 0f 1e fa          	endbr64 
    202c:	55                   	push   %rbp
    202d:	48 89 e5             	mov    %rsp,%rbp
    2030:	53                   	push   %rbx
    2031:	48 83 ec 18          	sub    $0x18,%rsp
    2035:	48 89 7d e8          	mov    %rdi,-0x18(%rbp)
    2039:	48 89 75 e0          	mov    %rsi,-0x20(%rbp)
    203d:	48 8b 45 e8          	mov    -0x18(%rbp),%rax
    2041:	48 89 c7             	mov    %rax,%rdi
    2044:	e8 1f 01 00 00       	callq  2168 <_ZNK9__gnu_cxx17__normal_iteratorIPhSt6vectorIhSaIhEEE4baseEv>
    2049:	48 8b 18             	mov    (%rax),%rbx
    204c:	48 8b 45 e0          	mov    -0x20(%rbp),%rax
    2050:	48 89 c7             	mov    %rax,%rdi
    2053:	e8 10 01 00 00       	callq  2168 <_ZNK9__gnu_cxx17__normal_iteratorIPhSt6vectorIhSaIhEEE4baseEv>
    2058:	48 8b 00             	mov    (%rax),%rax
    205b:	48 39 c3             	cmp    %rax,%rbx
    205e:	0f 95 c0             	setne  %al
    2061:	48 83 c4 18          	add    $0x18,%rsp
    2065:	5b                   	pop    %rbx
    2066:	5d                   	pop    %rbp
    2067:	c3                   	retq   

0000000000002068 <_ZN9__gnu_cxx17__normal_iteratorIPhSt6vectorIhSaIhEEEppEv>:
    2068:	f3 0f 1e fa          	endbr64 
    206c:	55                   	push   %rbp
    206d:	48 89 e5             	mov    %rsp,%rbp
    2070:	48 89 7d f8          	mov    %rdi,-0x8(%rbp)
    2074:	48 8b 45 f8          	mov    -0x8(%rbp),%rax
    2078:	48 8b 00             	mov    (%rax),%rax
    207b:	48 8d 50 01          	lea    0x1(%rax),%rdx
    207f:	48 8b 45 f8          	mov    -0x8(%rbp),%rax
    2083:	48 89 10             	mov    %rdx,(%rax)
    2086:	48 8b 45 f8          	mov    -0x8(%rbp),%rax
    208a:	5d                   	pop    %rbp
    208b:	c3                   	retq   

000000000000208c <_ZNK9__gnu_cxx17__normal_iteratorIPhSt6vectorIhSaIhEEEdeEv>:
    208c:	f3 0f 1e fa          	endbr64 
    2090:	55                   	push   %rbp
    2091:	48 89 e5             	mov    %rsp,%rbp
    2094:	48 89 7d f8          	mov    %rdi,-0x8(%rbp)
    2098:	48 8b 45 f8          	mov    -0x8(%rbp),%rax
    209c:	48 8b 00             	mov    (%rax),%rax
    209f:	5d                   	pop    %rbp
    20a0:	c3                   	retq   
    20a1:	90                   	nop

00000000000020a2 <_ZNSt6vectorIhSaIhEE4dataEv>:
    20a2:	f3 0f 1e fa          	endbr64 
    20a6:	55                   	push   %rbp
    20a7:	48 89 e5             	mov    %rsp,%rbp
    20aa:	48 83 ec 10          	sub    $0x10,%rsp
    20ae:	48 89 7d f8          	mov    %rdi,-0x8(%rbp)
    20b2:	48 8b 45 f8          	mov    -0x8(%rbp),%rax
    20b6:	48 8b 10             	mov    (%rax),%rdx
    20b9:	48 8b 45 f8          	mov    -0x8(%rbp),%rax
    20bd:	48 89 d6             	mov    %rdx,%rsi
    20c0:	48 89 c7             	mov    %rax,%rdi
    20c3:	e8 aa 03 00 00       	callq  2472 <_ZNKSt6vectorIhSaIhEE11_M_data_ptrIhEEPT_S4_>
    20c8:	c9                   	leaveq 
    20c9:	c3                   	retq   

00000000000020ca <_ZSt5beginIlLm100EEPT_RAT0__S0_>:
    20ca:	f3 0f 1e fa          	endbr64 
    20ce:	55                   	push   %rbp
    20cf:	48 89 e5             	mov    %rsp,%rbp
    20d2:	48 89 7d f8          	mov    %rdi,-0x8(%rbp)
    20d6:	48 8b 45 f8          	mov    -0x8(%rbp),%rax
    20da:	5d                   	pop    %rbp
    20db:	c3                   	retq   

00000000000020dc <_ZSt3endIlLm100EEPT_RAT0__S0_>:
    20dc:	f3 0f 1e fa          	endbr64 
    20e0:	55                   	push   %rbp
    20e1:	48 89 e5             	mov    %rsp,%rbp
    20e4:	48 89 7d f8          	mov    %rdi,-0x8(%rbp)
    20e8:	48 8b 45 f8          	mov    -0x8(%rbp),%rax
    20ec:	48 05 20 03 00 00    	add    $0x320,%rax
    20f2:	5d                   	pop    %rbp
    20f3:	c3                   	retq   

00000000000020f4 <_ZSt4fillIPllEvT_S1_RKT0_>:
    20f4:	f3 0f 1e fa          	endbr64 
    20f8:	55                   	push   %rbp
    20f9:	48 89 e5             	mov    %rsp,%rbp
    20fc:	53                   	push   %rbx
    20fd:	48 83 ec 28          	sub    $0x28,%rsp
    2101:	48 89 7d e8          	mov    %rdi,-0x18(%rbp)
    2105:	48 89 75 e0          	mov    %rsi,-0x20(%rbp)
    2109:	48 89 55 d8          	mov    %rdx,-0x28(%rbp)
    210d:	48 8b 45 e0          	mov    -0x20(%rbp),%rax
    2111:	48 89 c7             	mov    %rax,%rdi
    2114:	e8 6f 03 00 00       	callq  2488 <_ZSt12__niter_baseIPlET_S1_>
    2119:	48 89 c3             	mov    %rax,%rbx
    211c:	48 8b 45 e8          	mov    -0x18(%rbp),%rax
    2120:	48 89 c7             	mov    %rax,%rdi
    2123:	e8 60 03 00 00       	callq  2488 <_ZSt12__niter_baseIPlET_S1_>
    2128:	48 89 c1             	mov    %rax,%rcx
    212b:	48 8b 45 d8          	mov    -0x28(%rbp),%rax
    212f:	48 89 c2             	mov    %rax,%rdx
    2132:	48 89 de             	mov    %rbx,%rsi
    2135:	48 89 cf             	mov    %rcx,%rdi
    2138:	e8 5d 03 00 00       	callq  249a <_ZSt8__fill_aIPllEN9__gnu_cxx11__enable_ifIXsrSt11__is_scalarIT0_E7__valueEvE6__typeET_S8_RKS4_>
    213d:	90                   	nop
    213e:	48 83 c4 28          	add    $0x28,%rsp
    2142:	5b                   	pop    %rbx
    2143:	5d                   	pop    %rbp
    2144:	c3                   	retq   
    2145:	90                   	nop

0000000000002146 <_ZN9__gnu_cxx17__normal_iteratorIPhSt6vectorIhSaIhEEEC1ERKS1_>:
    2146:	f3 0f 1e fa          	endbr64 
    214a:	55                   	push   %rbp
    214b:	48 89 e5             	mov    %rsp,%rbp
    214e:	48 89 7d f8          	mov    %rdi,-0x8(%rbp)
    2152:	48 89 75 f0          	mov    %rsi,-0x10(%rbp)
    2156:	48 8b 45 f0          	mov    -0x10(%rbp),%rax
    215a:	48 8b 10             	mov    (%rax),%rdx
    215d:	48 8b 45 f8          	mov    -0x8(%rbp),%rax
    2161:	48 89 10             	mov    %rdx,(%rax)
    2164:	90                   	nop
    2165:	5d                   	pop    %rbp
    2166:	c3                   	retq   
    2167:	90                   	nop

0000000000002168 <_ZNK9__gnu_cxx17__normal_iteratorIPhSt6vectorIhSaIhEEE4baseEv>:
    2168:	f3 0f 1e fa          	endbr64 
    216c:	55                   	push   %rbp
    216d:	48 89 e5             	mov    %rsp,%rbp
    2170:	48 89 7d f8          	mov    %rdi,-0x8(%rbp)
    2174:	48 8b 45 f8          	mov    -0x8(%rbp),%rax
    2178:	5d                   	pop    %rbp
    2179:	c3                   	retq   

000000000000217a <_ZNKSt6vectorIhSaIhEE6cbeginEv>:
    217a:	f3 0f 1e fa          	endbr64 
    217e:	55                   	push   %rbp
    217f:	48 89 e5             	mov    %rsp,%rbp
    2182:	48 83 ec 30          	sub    $0x30,%rsp
    2186:	48 89 7d d8          	mov    %rdi,-0x28(%rbp)
    218a:	64 48 8b 04 25 28 00 	mov    %fs:0x28,%rax
    2191:	00 00 
    2193:	48 89 45 f8          	mov    %rax,-0x8(%rbp)
    2197:	31 c0                	xor    %eax,%eax
    2199:	48 8b 45 d8          	mov    -0x28(%rbp),%rax
    219d:	48 8b 00             	mov    (%rax),%rax
    21a0:	48 89 45 e8          	mov    %rax,-0x18(%rbp)
    21a4:	48 8d 55 e8          	lea    -0x18(%rbp),%rdx
    21a8:	48 8d 45 f0          	lea    -0x10(%rbp),%rax
    21ac:	48 89 d6             	mov    %rdx,%rsi
    21af:	48 89 c7             	mov    %rax,%rdi
    21b2:	e8 21 03 00 00       	callq  24d8 <_ZN9__gnu_cxx17__normal_iteratorIPKhSt6vectorIhSaIhEEEC1ERKS2_>
    21b7:	48 8b 45 f0          	mov    -0x10(%rbp),%rax
    21bb:	48 8b 4d f8          	mov    -0x8(%rbp),%rcx
    21bf:	64 48 33 0c 25 28 00 	xor    %fs:0x28,%rcx
    21c6:	00 00 
    21c8:	74 05                	je     21cf <_ZNKSt6vectorIhSaIhEE6cbeginEv+0x55>
    21ca:	e8 71 f0 ff ff       	callq  1240 <__stack_chk_fail@plt>
    21cf:	c9                   	leaveq 
    21d0:	c3                   	retq   

00000000000021d1 <_ZN9__gnu_cxxmiIPKhSt6vectorIhSaIhEEEENS_17__normal_iteratorIT_T0_E15difference_typeERKS9_SC_>:
    21d1:	f3 0f 1e fa          	endbr64 
    21d5:	55                   	push   %rbp
    21d6:	48 89 e5             	mov    %rsp,%rbp
    21d9:	53                   	push   %rbx
    21da:	48 83 ec 18          	sub    $0x18,%rsp
    21de:	48 89 7d e8          	mov    %rdi,-0x18(%rbp)
    21e2:	48 89 75 e0          	mov    %rsi,-0x20(%rbp)
    21e6:	48 8b 45 e8          	mov    -0x18(%rbp),%rax
    21ea:	48 89 c7             	mov    %rax,%rdi
    21ed:	e8 08 03 00 00       	callq  24fa <_ZNK9__gnu_cxx17__normal_iteratorIPKhSt6vectorIhSaIhEEE4baseEv>
    21f2:	48 8b 18             	mov    (%rax),%rbx
    21f5:	48 8b 45 e0          	mov    -0x20(%rbp),%rax
    21f9:	48 89 c7             	mov    %rax,%rdi
    21fc:	e8 f9 02 00 00       	callq  24fa <_ZNK9__gnu_cxx17__normal_iteratorIPKhSt6vectorIhSaIhEEE4baseEv>
    2201:	48 8b 00             	mov    (%rax),%rax
    2204:	48 29 c3             	sub    %rax,%rbx
    2207:	48 89 d8             	mov    %rbx,%rax
    220a:	48 83 c4 18          	add    $0x18,%rsp
    220e:	5b                   	pop    %rbx
    220f:	5d                   	pop    %rbp
    2210:	c3                   	retq   
    2211:	90                   	nop

0000000000002212 <_ZNK9__gnu_cxx17__normal_iteratorIPhSt6vectorIhSaIhEEEplEl>:
    2212:	f3 0f 1e fa          	endbr64 
    2216:	55                   	push   %rbp
    2217:	48 89 e5             	mov    %rsp,%rbp
    221a:	48 83 ec 30          	sub    $0x30,%rsp
    221e:	48 89 7d d8          	mov    %rdi,-0x28(%rbp)
    2222:	48 89 75 d0          	mov    %rsi,-0x30(%rbp)
    2226:	64 48 8b 04 25 28 00 	mov    %fs:0x28,%rax
    222d:	00 00 
    222f:	48 89 45 f8          	mov    %rax,-0x8(%rbp)
    2233:	31 c0                	xor    %eax,%eax
    2235:	48 8b 45 d8          	mov    -0x28(%rbp),%rax
    2239:	48 8b 10             	mov    (%rax),%rdx
    223c:	48 8b 45 d0          	mov    -0x30(%rbp),%rax
    2240:	48 01 d0             	add    %rdx,%rax
    2243:	48 89 45 e8          	mov    %rax,-0x18(%rbp)
    2247:	48 8d 55 e8          	lea    -0x18(%rbp),%rdx
    224b:	48 8d 45 f0          	lea    -0x10(%rbp),%rax
    224f:	48 89 d6             	mov    %rdx,%rsi
    2252:	48 89 c7             	mov    %rax,%rdi
    2255:	e8 ec fe ff ff       	callq  2146 <_ZN9__gnu_cxx17__normal_iteratorIPhSt6vectorIhSaIhEEEC1ERKS1_>
    225a:	48 8b 45 f0          	mov    -0x10(%rbp),%rax
    225e:	48 8b 4d f8          	mov    -0x8(%rbp),%rcx
    2262:	64 48 33 0c 25 28 00 	xor    %fs:0x28,%rcx
    2269:	00 00 
    226b:	74 05                	je     2272 <_ZNK9__gnu_cxx17__normal_iteratorIPhSt6vectorIhSaIhEEEplEl+0x60>
    226d:	e8 ce ef ff ff       	callq  1240 <__stack_chk_fail@plt>
    2272:	c9                   	leaveq 
    2273:	c3                   	retq   

0000000000002274 <_ZNSt6vectorIhSaIhEE18_M_insert_dispatchIPhEEvN9__gnu_cxx17__normal_iteratorIS3_S1_EET_S7_St12__false_type>:
    2274:	f3 0f 1e fa          	endbr64 
    2278:	55                   	push   %rbp
    2279:	48 89 e5             	mov    %rsp,%rbp
    227c:	48 83 ec 30          	sub    $0x30,%rsp
    2280:	48 89 7d e8          	mov    %rdi,-0x18(%rbp)
    2284:	48 89 75 e0          	mov    %rsi,-0x20(%rbp)
    2288:	48 89 55 d8          	mov    %rdx,-0x28(%rbp)
    228c:	48 89 4d d0          	mov    %rcx,-0x30(%rbp)
    2290:	64 48 8b 04 25 28 00 	mov    %fs:0x28,%rax
    2297:	00 00 
    2299:	48 89 45 f8          	mov    %rax,-0x8(%rbp)
    229d:	31 c0                	xor    %eax,%eax
    229f:	48 8d 45 d8          	lea    -0x28(%rbp),%rax
    22a3:	48 89 c7             	mov    %rax,%rdi
    22a6:	e8 61 02 00 00       	callq  250c <_ZSt19__iterator_categoryIPhENSt15iterator_traitsIT_E17iterator_categoryERKS2_>
    22ab:	48 8b 55 d8          	mov    -0x28(%rbp),%rdx
    22af:	48 8b 4d d0          	mov    -0x30(%rbp),%rcx
    22b3:	48 8b 75 e0          	mov    -0x20(%rbp),%rsi
    22b7:	48 8b 45 e8          	mov    -0x18(%rbp),%rax
    22bb:	48 89 c7             	mov    %rax,%rdi
    22be:	e8 8d 02 00 00       	callq  2550 <_ZNSt6vectorIhSaIhEE15_M_range_insertIPhEEvN9__gnu_cxx17__normal_iteratorIS3_S1_EET_S7_St20forward_iterator_tag>
    22c3:	90                   	nop
    22c4:	48 8b 45 f8          	mov    -0x8(%rbp),%rax
    22c8:	64 48 33 04 25 28 00 	xor    %fs:0x28,%rax
    22cf:	00 00 
    22d1:	74 05                	je     22d8 <_ZNSt6vectorIhSaIhEE18_M_insert_dispatchIPhEEvN9__gnu_cxx17__normal_iteratorIS3_S1_EET_S7_St12__false_type+0x64>
    22d3:	e8 68 ef ff ff       	callq  1240 <__stack_chk_fail@plt>
    22d8:	c9                   	leaveq 
    22d9:	c3                   	retq   

00000000000022da <_ZNSaIhEC1Ev>:
    22da:	f3 0f 1e fa          	endbr64 
    22de:	55                   	push   %rbp
    22df:	48 89 e5             	mov    %rsp,%rbp
    22e2:	48 83 ec 10          	sub    $0x10,%rsp
    22e6:	48 89 7d f8          	mov    %rdi,-0x8(%rbp)
    22ea:	48 8b 45 f8          	mov    -0x8(%rbp),%rax
    22ee:	48 89 c7             	mov    %rax,%rdi
    22f1:	e8 52 06 00 00       	callq  2948 <_ZN9__gnu_cxx13new_allocatorIhEC1Ev>
    22f6:	90                   	nop
    22f7:	c9                   	leaveq 
    22f8:	c3                   	retq   
    22f9:	90                   	nop

00000000000022fa <_ZNSt12_Vector_baseIhSaIhEE17_Vector_impl_dataC1Ev>:
    22fa:	f3 0f 1e fa          	endbr64 
    22fe:	55                   	push   %rbp
    22ff:	48 89 e5             	mov    %rsp,%rbp
    2302:	48 89 7d f8          	mov    %rdi,-0x8(%rbp)
    2306:	48 8b 45 f8          	mov    -0x8(%rbp),%rax
    230a:	48 c7 00 00 00 00 00 	movq   $0x0,(%rax)
    2311:	48 8b 45 f8          	mov    -0x8(%rbp),%rax
    2315:	48 c7 40 08 00 00 00 	movq   $0x0,0x8(%rax)
    231c:	00 
    231d:	48 8b 45 f8          	mov    -0x8(%rbp),%rax
    2321:	48 c7 40 10 00 00 00 	movq   $0x0,0x10(%rax)
    2328:	00 
    2329:	90                   	nop
    232a:	5d                   	pop    %rbp
    232b:	c3                   	retq   

000000000000232c <_ZN9__gnu_cxx13new_allocatorIhED1Ev>:
    232c:	f3 0f 1e fa          	endbr64 
    2330:	55                   	push   %rbp
    2331:	48 89 e5             	mov    %rsp,%rbp
    2334:	48 89 7d f8          	mov    %rdi,-0x8(%rbp)
    2338:	90                   	nop
    2339:	5d                   	pop    %rbp
    233a:	c3                   	retq   
    233b:	90                   	nop

000000000000233c <_ZNSt12_Vector_baseIhSaIhEE13_M_deallocateEPhm>:
    233c:	f3 0f 1e fa          	endbr64 
    2340:	55                   	push   %rbp
    2341:	48 89 e5             	mov    %rsp,%rbp
    2344:	48 83 ec 20          	sub    $0x20,%rsp
    2348:	48 89 7d f8          	mov    %rdi,-0x8(%rbp)
    234c:	48 89 75 f0          	mov    %rsi,-0x10(%rbp)
    2350:	48 89 55 e8          	mov    %rdx,-0x18(%rbp)
    2354:	48 83 7d f0 00       	cmpq   $0x0,-0x10(%rbp)
    2359:	74 17                	je     2372 <_ZNSt12_Vector_baseIhSaIhEE13_M_deallocateEPhm+0x36>
    235b:	48 8b 45 f8          	mov    -0x8(%rbp),%rax
    235f:	48 8b 55 e8          	mov    -0x18(%rbp),%rdx
    2363:	48 8b 4d f0          	mov    -0x10(%rbp),%rcx
    2367:	48 89 ce             	mov    %rcx,%rsi
    236a:	48 89 c7             	mov    %rax,%rdi
    236d:	e8 e5 05 00 00       	callq  2957 <_ZNSt16allocator_traitsISaIhEE10deallocateERS0_Phm>
    2372:	90                   	nop
    2373:	c9                   	leaveq 
    2374:	c3                   	retq   
    2375:	90                   	nop

0000000000002376 <_ZNSt12_Vector_baseIhSaIhEE19_M_get_Tp_allocatorEv>:
    2376:	f3 0f 1e fa          	endbr64 
    237a:	55                   	push   %rbp
    237b:	48 89 e5             	mov    %rsp,%rbp
    237e:	48 89 7d f8          	mov    %rdi,-0x8(%rbp)
    2382:	48 8b 45 f8          	mov    -0x8(%rbp),%rax
    2386:	5d                   	pop    %rbp
    2387:	c3                   	retq   

0000000000002388 <_ZSt8_DestroyIPhhEvT_S1_RSaIT0_E>:
    2388:	f3 0f 1e fa          	endbr64 
    238c:	55                   	push   %rbp
    238d:	48 89 e5             	mov    %rsp,%rbp
    2390:	48 83 ec 20          	sub    $0x20,%rsp
    2394:	48 89 7d f8          	mov    %rdi,-0x8(%rbp)
    2398:	48 89 75 f0          	mov    %rsi,-0x10(%rbp)
    239c:	48 89 55 e8          	mov    %rdx,-0x18(%rbp)
    23a0:	48 8b 55 f0          	mov    -0x10(%rbp),%rdx
    23a4:	48 8b 45 f8          	mov    -0x8(%rbp),%rax
    23a8:	48 89 d6             	mov    %rdx,%rsi
    23ab:	48 89 c7             	mov    %rax,%rdi
    23ae:	e8 d6 05 00 00       	callq  2989 <_ZSt8_DestroyIPhEvT_S1_>
    23b3:	90                   	nop
    23b4:	c9                   	leaveq 
    23b5:	c3                   	retq   

00000000000023b6 <_ZSt4moveIRhEONSt16remove_referenceIT_E4typeEOS2_>:
    23b6:	f3 0f 1e fa          	endbr64 
    23ba:	55                   	push   %rbp
    23bb:	48 89 e5             	mov    %rsp,%rbp
    23be:	48 89 7d f8          	mov    %rdi,-0x8(%rbp)
    23c2:	48 8b 45 f8          	mov    -0x8(%rbp),%rax
    23c6:	5d                   	pop    %rbp
    23c7:	c3                   	retq   

00000000000023c8 <_ZNSt6vectorIhSaIhEE12emplace_backIJhEEERhDpOT_>:
    23c8:	f3 0f 1e fa          	endbr64 
    23cc:	55                   	push   %rbp
    23cd:	48 89 e5             	mov    %rsp,%rbp
    23d0:	53                   	push   %rbx
    23d1:	48 83 ec 18          	sub    $0x18,%rsp
    23d5:	48 89 7d e8          	mov    %rdi,-0x18(%rbp)
    23d9:	48 89 75 e0          	mov    %rsi,-0x20(%rbp)
    23dd:	48 8b 45 e8          	mov    -0x18(%rbp),%rax
    23e1:	48 8b 50 08          	mov    0x8(%rax),%rdx
    23e5:	48 8b 45 e8          	mov    -0x18(%rbp),%rax
    23e9:	48 8b 40 10          	mov    0x10(%rax),%rax
    23ed:	48 39 c2             	cmp    %rax,%rdx
    23f0:	74 3c                	je     242e <_ZNSt6vectorIhSaIhEE12emplace_backIJhEEERhDpOT_+0x66>
    23f2:	48 8b 45 e0          	mov    -0x20(%rbp),%rax
    23f6:	48 89 c7             	mov    %rax,%rdi
    23f9:	e8 b5 05 00 00       	callq  29b3 <_ZSt7forwardIhEOT_RNSt16remove_referenceIS0_E4typeE>
    23fe:	48 89 c2             	mov    %rax,%rdx
    2401:	48 8b 45 e8          	mov    -0x18(%rbp),%rax
    2405:	48 8b 48 08          	mov    0x8(%rax),%rcx
    2409:	48 8b 45 e8          	mov    -0x18(%rbp),%rax
    240d:	48 89 ce             	mov    %rcx,%rsi
    2410:	48 89 c7             	mov    %rax,%rdi
    2413:	e8 ad 05 00 00       	callq  29c5 <_ZNSt16allocator_traitsISaIhEE9constructIhJhEEEvRS0_PT_DpOT0_>
    2418:	48 8b 45 e8          	mov    -0x18(%rbp),%rax
    241c:	48 8b 40 08          	mov    0x8(%rax),%rax
    2420:	48 8d 50 01          	lea    0x1(%rax),%rdx
    2424:	48 8b 45 e8          	mov    -0x18(%rbp),%rax
    2428:	48 89 50 08          	mov    %rdx,0x8(%rax)
    242c:	eb 30                	jmp    245e <_ZNSt6vectorIhSaIhEE12emplace_backIJhEEERhDpOT_+0x96>
    242e:	48 8b 45 e0          	mov    -0x20(%rbp),%rax
    2432:	48 89 c7             	mov    %rax,%rdi
    2435:	e8 79 05 00 00       	callq  29b3 <_ZSt7forwardIhEOT_RNSt16remove_referenceIS0_E4typeE>
    243a:	48 89 c3             	mov    %rax,%rbx
    243d:	48 8b 45 e8          	mov    -0x18(%rbp),%rax
    2441:	48 89 c7             	mov    %rax,%rdi
    2444:	e8 97 f8 ff ff       	callq  1ce0 <_ZNSt6vectorIhSaIhEE3endEv>
    2449:	48 89 c1             	mov    %rax,%rcx
    244c:	48 8b 45 e8          	mov    -0x18(%rbp),%rax
    2450:	48 89 da             	mov    %rbx,%rdx
    2453:	48 89 ce             	mov    %rcx,%rsi
    2456:	48 89 c7             	mov    %rax,%rdi
    2459:	e8 a4 05 00 00       	callq  2a02 <_ZNSt6vectorIhSaIhEE17_M_realloc_insertIJhEEEvN9__gnu_cxx17__normal_iteratorIPhS1_EEDpOT_>
    245e:	48 8b 45 e8          	mov    -0x18(%rbp),%rax
    2462:	48 89 c7             	mov    %rax,%rdi
    2465:	e8 3e 07 00 00       	callq  2ba8 <_ZNSt6vectorIhSaIhEE4backEv>
    246a:	48 83 c4 18          	add    $0x18,%rsp
    246e:	5b                   	pop    %rbx
    246f:	5d                   	pop    %rbp
    2470:	c3                   	retq   
    2471:	90                   	nop

0000000000002472 <_ZNKSt6vectorIhSaIhEE11_M_data_ptrIhEEPT_S4_>:
    2472:	f3 0f 1e fa          	endbr64 
    2476:	55                   	push   %rbp
    2477:	48 89 e5             	mov    %rsp,%rbp
    247a:	48 89 7d f8          	mov    %rdi,-0x8(%rbp)
    247e:	48 89 75 f0          	mov    %rsi,-0x10(%rbp)
    2482:	48 8b 45 f0          	mov    -0x10(%rbp),%rax
    2486:	5d                   	pop    %rbp
    2487:	c3                   	retq   

0000000000002488 <_ZSt12__niter_baseIPlET_S1_>:
    2488:	f3 0f 1e fa          	endbr64 
    248c:	55                   	push   %rbp
    248d:	48 89 e5             	mov    %rsp,%rbp
    2490:	48 89 7d f8          	mov    %rdi,-0x8(%rbp)
    2494:	48 8b 45 f8          	mov    -0x8(%rbp),%rax
    2498:	5d                   	pop    %rbp
    2499:	c3                   	retq   

000000000000249a <_ZSt8__fill_aIPllEN9__gnu_cxx11__enable_ifIXsrSt11__is_scalarIT0_E7__valueEvE6__typeET_S8_RKS4_>:
    249a:	f3 0f 1e fa          	endbr64 
    249e:	55                   	push   %rbp
    249f:	48 89 e5             	mov    %rsp,%rbp
    24a2:	48 89 7d e8          	mov    %rdi,-0x18(%rbp)
    24a6:	48 89 75 e0          	mov    %rsi,-0x20(%rbp)
    24aa:	48 89 55 d8          	mov    %rdx,-0x28(%rbp)
    24ae:	48 8b 45 d8          	mov    -0x28(%rbp),%rax
    24b2:	48 8b 00             	mov    (%rax),%rax
    24b5:	48 89 45 f8          	mov    %rax,-0x8(%rbp)
    24b9:	48 8b 45 e8          	mov    -0x18(%rbp),%rax
    24bd:	48 3b 45 e0          	cmp    -0x20(%rbp),%rax
    24c1:	74 12                	je     24d5 <_ZSt8__fill_aIPllEN9__gnu_cxx11__enable_ifIXsrSt11__is_scalarIT0_E7__valueEvE6__typeET_S8_RKS4_+0x3b>
    24c3:	48 8b 45 e8          	mov    -0x18(%rbp),%rax
    24c7:	48 8b 55 f8          	mov    -0x8(%rbp),%rdx
    24cb:	48 89 10             	mov    %rdx,(%rax)
    24ce:	48 83 45 e8 08       	addq   $0x8,-0x18(%rbp)
    24d3:	eb e4                	jmp    24b9 <_ZSt8__fill_aIPllEN9__gnu_cxx11__enable_ifIXsrSt11__is_scalarIT0_E7__valueEvE6__typeET_S8_RKS4_+0x1f>
    24d5:	90                   	nop
    24d6:	5d                   	pop    %rbp
    24d7:	c3                   	retq   

00000000000024d8 <_ZN9__gnu_cxx17__normal_iteratorIPKhSt6vectorIhSaIhEEEC1ERKS2_>:
    24d8:	f3 0f 1e fa          	endbr64 
    24dc:	55                   	push   %rbp
    24dd:	48 89 e5             	mov    %rsp,%rbp
    24e0:	48 89 7d f8          	mov    %rdi,-0x8(%rbp)
    24e4:	48 89 75 f0          	mov    %rsi,-0x10(%rbp)
    24e8:	48 8b 45 f0          	mov    -0x10(%rbp),%rax
    24ec:	48 8b 10             	mov    (%rax),%rdx
    24ef:	48 8b 45 f8          	mov    -0x8(%rbp),%rax
    24f3:	48 89 10             	mov    %rdx,(%rax)
    24f6:	90                   	nop
    24f7:	5d                   	pop    %rbp
    24f8:	c3                   	retq   
    24f9:	90                   	nop

00000000000024fa <_ZNK9__gnu_cxx17__normal_iteratorIPKhSt6vectorIhSaIhEEE4baseEv>:
    24fa:	f3 0f 1e fa          	endbr64 
    24fe:	55                   	push   %rbp
    24ff:	48 89 e5             	mov    %rsp,%rbp
    2502:	48 89 7d f8          	mov    %rdi,-0x8(%rbp)
    2506:	48 8b 45 f8          	mov    -0x8(%rbp),%rax
    250a:	5d                   	pop    %rbp
    250b:	c3                   	retq   

000000000000250c <_ZSt19__iterator_categoryIPhENSt15iterator_traitsIT_E17iterator_categoryERKS2_>:
    250c:	f3 0f 1e fa          	endbr64 
    2510:	55                   	push   %rbp
    2511:	48 89 e5             	mov    %rsp,%rbp
    2514:	48 89 7d f8          	mov    %rdi,-0x8(%rbp)
    2518:	5d                   	pop    %rbp
    2519:	c3                   	retq   

000000000000251a <_ZSt8distanceIPhENSt15iterator_traitsIT_E15difference_typeES2_S2_>:
    251a:	f3 0f 1e fa          	endbr64 
    251e:	55                   	push   %rbp
    251f:	48 89 e5             	mov    %rsp,%rbp
    2522:	48 83 ec 10          	sub    $0x10,%rsp
    2526:	48 89 7d f8          	mov    %rdi,-0x8(%rbp)
    252a:	48 89 75 f0          	mov    %rsi,-0x10(%rbp)
    252e:	48 8d 45 f8          	lea    -0x8(%rbp),%rax
    2532:	48 89 c7             	mov    %rax,%rdi
    2535:	e8 d2 ff ff ff       	callq  250c <_ZSt19__iterator_categoryIPhENSt15iterator_traitsIT_E17iterator_categoryERKS2_>
    253a:	48 8b 45 f8          	mov    -0x8(%rbp),%rax
    253e:	48 8b 55 f0          	mov    -0x10(%rbp),%rdx
    2542:	48 89 d6             	mov    %rdx,%rsi
    2545:	48 89 c7             	mov    %rax,%rdi
    2548:	e8 c1 06 00 00       	callq  2c0e <_ZSt10__distanceIPhENSt15iterator_traitsIT_E15difference_typeES2_S2_St26random_access_iterator_tag>
    254d:	c9                   	leaveq 
    254e:	c3                   	retq   
    254f:	90                   	nop

0000000000002550 <_ZNSt6vectorIhSaIhEE15_M_range_insertIPhEEvN9__gnu_cxx17__normal_iteratorIS3_S1_EET_S7_St20forward_iterator_tag>:
    2550:	f3 0f 1e fa          	endbr64 
    2554:	55                   	push   %rbp
    2555:	48 89 e5             	mov    %rsp,%rbp
    2558:	41 54                	push   %r12
    255a:	53                   	push   %rbx
    255b:	48 83 ec 60          	sub    $0x60,%rsp
    255f:	48 89 7d a8          	mov    %rdi,-0x58(%rbp)
    2563:	48 89 75 a0          	mov    %rsi,-0x60(%rbp)
    2567:	48 89 55 98          	mov    %rdx,-0x68(%rbp)
    256b:	48 89 4d 90          	mov    %rcx,-0x70(%rbp)
    256f:	64 48 8b 04 25 28 00 	mov    %fs:0x28,%rax
    2576:	00 00 
    2578:	48 89 45 e8          	mov    %rax,-0x18(%rbp)
    257c:	31 c0                	xor    %eax,%eax
    257e:	48 8b 45 98          	mov    -0x68(%rbp),%rax
    2582:	48 3b 45 90          	cmp    -0x70(%rbp),%rax
    2586:	0f 84 9e 03 00 00    	je     292a <_ZNSt6vectorIhSaIhEE15_M_range_insertIPhEEvN9__gnu_cxx17__normal_iteratorIS3_S1_EET_S7_St20forward_iterator_tag+0x3da>
    258c:	48 8b 55 90          	mov    -0x70(%rbp),%rdx
    2590:	48 8b 45 98          	mov    -0x68(%rbp),%rax
    2594:	48 89 d6             	mov    %rdx,%rsi
    2597:	48 89 c7             	mov    %rax,%rdi
    259a:	e8 7b ff ff ff       	callq  251a <_ZSt8distanceIPhENSt15iterator_traitsIT_E15difference_typeES2_S2_>
    259f:	48 89 45 c0          	mov    %rax,-0x40(%rbp)
    25a3:	48 8b 45 a8          	mov    -0x58(%rbp),%rax
    25a7:	48 8b 50 10          	mov    0x10(%rax),%rdx
    25ab:	48 8b 45 a8          	mov    -0x58(%rbp),%rax
    25af:	48 8b 40 08          	mov    0x8(%rax),%rax
    25b3:	48 29 c2             	sub    %rax,%rdx
    25b6:	48 89 d0             	mov    %rdx,%rax
    25b9:	48 39 45 c0          	cmp    %rax,-0x40(%rbp)
    25bd:	0f 87 a8 01 00 00    	ja     276b <_ZNSt6vectorIhSaIhEE15_M_range_insertIPhEEvN9__gnu_cxx17__normal_iteratorIS3_S1_EET_S7_St20forward_iterator_tag+0x21b>
    25c3:	48 8b 45 a8          	mov    -0x58(%rbp),%rax
    25c7:	48 89 c7             	mov    %rax,%rdi
    25ca:	e8 11 f7 ff ff       	callq  1ce0 <_ZNSt6vectorIhSaIhEE3endEv>
    25cf:	48 89 45 b0          	mov    %rax,-0x50(%rbp)
    25d3:	48 8d 55 a0          	lea    -0x60(%rbp),%rdx
    25d7:	48 8d 45 b0          	lea    -0x50(%rbp),%rax
    25db:	48 89 d6             	mov    %rdx,%rsi
    25de:	48 89 c7             	mov    %rax,%rdi
    25e1:	e8 42 06 00 00       	callq  2c28 <_ZN9__gnu_cxxmiIPhSt6vectorIhSaIhEEEENS_17__normal_iteratorIT_T0_E15difference_typeERKS8_SB_>
    25e6:	48 89 45 d8          	mov    %rax,-0x28(%rbp)
    25ea:	48 8b 45 a8          	mov    -0x58(%rbp),%rax
    25ee:	48 8b 40 08          	mov    0x8(%rax),%rax
    25f2:	48 89 45 e0          	mov    %rax,-0x20(%rbp)
    25f6:	48 8b 45 d8          	mov    -0x28(%rbp),%rax
    25fa:	48 3b 45 c0          	cmp    -0x40(%rbp),%rax
    25fe:	0f 86 9f 00 00 00    	jbe    26a3 <_ZNSt6vectorIhSaIhEE15_M_range_insertIPhEEvN9__gnu_cxx17__normal_iteratorIS3_S1_EET_S7_St20forward_iterator_tag+0x153>
    2604:	48 8b 45 a8          	mov    -0x58(%rbp),%rax
    2608:	48 89 c7             	mov    %rax,%rdi
    260b:	e8 66 fd ff ff       	callq  2376 <_ZNSt12_Vector_baseIhSaIhEE19_M_get_Tp_allocatorEv>
    2610:	48 89 c6             	mov    %rax,%rsi
    2613:	48 8b 45 a8          	mov    -0x58(%rbp),%rax
    2617:	48 8b 50 08          	mov    0x8(%rax),%rdx
    261b:	48 8b 45 a8          	mov    -0x58(%rbp),%rax
    261f:	48 8b 40 08          	mov    0x8(%rax),%rax
    2623:	48 8b 4d a8          	mov    -0x58(%rbp),%rcx
    2627:	48 8b 49 08          	mov    0x8(%rcx),%rcx
    262b:	48 8b 7d c0          	mov    -0x40(%rbp),%rdi
    262f:	48 f7 df             	neg    %rdi
    2632:	48 01 cf             	add    %rcx,%rdi
    2635:	48 89 f1             	mov    %rsi,%rcx
    2638:	48 89 c6             	mov    %rax,%rsi
    263b:	e8 28 06 00 00       	callq  2c68 <_ZSt22__uninitialized_move_aIPhS0_SaIhEET0_T_S3_S2_RT1_>
    2640:	48 8b 45 a8          	mov    -0x58(%rbp),%rax
    2644:	48 8b 50 08          	mov    0x8(%rax),%rdx
    2648:	48 8b 45 c0          	mov    -0x40(%rbp),%rax
    264c:	48 01 c2             	add    %rax,%rdx
    264f:	48 8b 45 a8          	mov    -0x58(%rbp),%rax
    2653:	48 89 50 08          	mov    %rdx,0x8(%rax)
    2657:	48 8b 45 c0          	mov    -0x40(%rbp),%rax
    265b:	48 f7 d8             	neg    %rax
    265e:	48 89 c2             	mov    %rax,%rdx
    2661:	48 8b 45 e0          	mov    -0x20(%rbp),%rax
    2665:	48 8d 1c 02          	lea    (%rdx,%rax,1),%rbx
    2669:	48 8d 45 a0          	lea    -0x60(%rbp),%rax
    266d:	48 89 c7             	mov    %rax,%rdi
    2670:	e8 f3 fa ff ff       	callq  2168 <_ZNK9__gnu_cxx17__normal_iteratorIPhSt6vectorIhSaIhEEE4baseEv>
    2675:	48 8b 00             	mov    (%rax),%rax
    2678:	48 8b 55 e0          	mov    -0x20(%rbp),%rdx
    267c:	48 89 de             	mov    %rbx,%rsi
    267f:	48 89 c7             	mov    %rax,%rdi
    2682:	e8 39 06 00 00       	callq  2cc0 <_ZSt13move_backwardIPhS0_ET0_T_S2_S1_>
    2687:	48 8b 55 a0          	mov    -0x60(%rbp),%rdx
    268b:	48 8b 4d 90          	mov    -0x70(%rbp),%rcx
    268f:	48 8b 45 98          	mov    -0x68(%rbp),%rax
    2693:	48 89 ce             	mov    %rcx,%rsi
    2696:	48 89 c7             	mov    %rax,%rdi
    2699:	e8 72 06 00 00       	callq  2d10 <_ZSt4copyIPhN9__gnu_cxx17__normal_iteratorIS0_St6vectorIhSaIhEEEEET0_T_S8_S7_>
    269e:	e9 87 02 00 00       	jmpq   292a <_ZNSt6vectorIhSaIhEE15_M_range_insertIPhEEvN9__gnu_cxx17__normal_iteratorIS3_S1_EET_S7_St20forward_iterator_tag+0x3da>
    26a3:	48 8b 45 98          	mov    -0x68(%rbp),%rax
    26a7:	48 89 45 b0          	mov    %rax,-0x50(%rbp)
    26ab:	48 8b 55 d8          	mov    -0x28(%rbp),%rdx
    26af:	48 8d 45 b0          	lea    -0x50(%rbp),%rax
    26b3:	48 89 d6             	mov    %rdx,%rsi
    26b6:	48 89 c7             	mov    %rax,%rdi
    26b9:	e8 a2 06 00 00       	callq  2d60 <_ZSt7advanceIPhmEvRT_T0_>
    26be:	48 8b 45 a8          	mov    -0x58(%rbp),%rax
    26c2:	48 89 c7             	mov    %rax,%rdi
    26c5:	e8 ac fc ff ff       	callq  2376 <_ZNSt12_Vector_baseIhSaIhEE19_M_get_Tp_allocatorEv>
    26ca:	48 89 c1             	mov    %rax,%rcx
    26cd:	48 8b 45 a8          	mov    -0x58(%rbp),%rax
    26d1:	48 8b 50 08          	mov    0x8(%rax),%rdx
    26d5:	48 8b 45 b0          	mov    -0x50(%rbp),%rax
    26d9:	48 8b 75 90          	mov    -0x70(%rbp),%rsi
    26dd:	48 89 c7             	mov    %rax,%rdi
    26e0:	e8 b9 06 00 00       	callq  2d9e <_ZSt22__uninitialized_copy_aIPhS0_hET0_T_S2_S1_RSaIT1_E>
    26e5:	48 8b 45 a8          	mov    -0x58(%rbp),%rax
    26e9:	48 8b 50 08          	mov    0x8(%rax),%rdx
    26ed:	48 8b 45 c0          	mov    -0x40(%rbp),%rax
    26f1:	48 2b 45 d8          	sub    -0x28(%rbp),%rax
    26f5:	48 01 c2             	add    %rax,%rdx
    26f8:	48 8b 45 a8          	mov    -0x58(%rbp),%rax
    26fc:	48 89 50 08          	mov    %rdx,0x8(%rax)
    2700:	48 8b 45 a8          	mov    -0x58(%rbp),%rax
    2704:	48 89 c7             	mov    %rax,%rdi
    2707:	e8 6a fc ff ff       	callq  2376 <_ZNSt12_Vector_baseIhSaIhEE19_M_get_Tp_allocatorEv>
    270c:	49 89 c4             	mov    %rax,%r12
    270f:	48 8b 45 a8          	mov    -0x58(%rbp),%rax
    2713:	48 8b 58 08          	mov    0x8(%rax),%rbx
    2717:	48 8d 45 a0          	lea    -0x60(%rbp),%rax
    271b:	48 89 c7             	mov    %rax,%rdi
    271e:	e8 45 fa ff ff       	callq  2168 <_ZNK9__gnu_cxx17__normal_iteratorIPhSt6vectorIhSaIhEEE4baseEv>
    2723:	48 8b 00             	mov    (%rax),%rax
    2726:	48 8b 75 e0          	mov    -0x20(%rbp),%rsi
    272a:	4c 89 e1             	mov    %r12,%rcx
    272d:	48 89 da             	mov    %rbx,%rdx
    2730:	48 89 c7             	mov    %rax,%rdi
    2733:	e8 30 05 00 00       	callq  2c68 <_ZSt22__uninitialized_move_aIPhS0_SaIhEET0_T_S3_S2_RT1_>
    2738:	48 8b 45 a8          	mov    -0x58(%rbp),%rax
    273c:	48 8b 50 08          	mov    0x8(%rax),%rdx
    2740:	48 8b 45 d8          	mov    -0x28(%rbp),%rax
    2744:	48 01 c2             	add    %rax,%rdx
    2747:	48 8b 45 a8          	mov    -0x58(%rbp),%rax
    274b:	48 89 50 08          	mov    %rdx,0x8(%rax)
    274f:	48 8b 4d b0          	mov    -0x50(%rbp),%rcx
    2753:	48 8b 55 a0          	mov    -0x60(%rbp),%rdx
    2757:	48 8b 45 98          	mov    -0x68(%rbp),%rax
    275b:	48 89 ce             	mov    %rcx,%rsi
    275e:	48 89 c7             	mov    %rax,%rdi
    2761:	e8 aa 05 00 00       	callq  2d10 <_ZSt4copyIPhN9__gnu_cxx17__normal_iteratorIS0_St6vectorIhSaIhEEEEET0_T_S8_S7_>
    2766:	e9 bf 01 00 00       	jmpq   292a <_ZNSt6vectorIhSaIhEE15_M_range_insertIPhEEvN9__gnu_cxx17__normal_iteratorIS3_S1_EET_S7_St20forward_iterator_tag+0x3da>
    276b:	48 8b 4d c0          	mov    -0x40(%rbp),%rcx
    276f:	48 8b 45 a8          	mov    -0x58(%rbp),%rax
    2773:	48 8d 15 de 18 00 00 	lea    0x18de(%rip),%rdx        # 4058 <_ZL4SIZE+0x8>
    277a:	48 89 ce             	mov    %rcx,%rsi
    277d:	48 89 c7             	mov    %rax,%rdi
    2780:	e8 4f 06 00 00       	callq  2dd4 <_ZNKSt6vectorIhSaIhEE12_M_check_lenEmPKc>
    2785:	48 89 45 c8          	mov    %rax,-0x38(%rbp)
    2789:	48 8b 45 a8          	mov    -0x58(%rbp),%rax
    278d:	48 8b 55 c8          	mov    -0x38(%rbp),%rdx
    2791:	48 89 d6             	mov    %rdx,%rsi
    2794:	48 89 c7             	mov    %rax,%rdi
    2797:	e8 28 07 00 00       	callq  2ec4 <_ZNSt12_Vector_baseIhSaIhEE11_M_allocateEm>
    279c:	48 89 45 d0          	mov    %rax,-0x30(%rbp)
    27a0:	48 8b 45 d0          	mov    -0x30(%rbp),%rax
    27a4:	48 89 45 b8          	mov    %rax,-0x48(%rbp)
    27a8:	48 8b 45 a8          	mov    -0x58(%rbp),%rax
    27ac:	48 89 c7             	mov    %rax,%rdi
    27af:	e8 c2 fb ff ff       	callq  2376 <_ZNSt12_Vector_baseIhSaIhEE19_M_get_Tp_allocatorEv>
    27b4:	48 89 c3             	mov    %rax,%rbx
    27b7:	48 8d 45 a0          	lea    -0x60(%rbp),%rax
    27bb:	48 89 c7             	mov    %rax,%rdi
    27be:	e8 a5 f9 ff ff       	callq  2168 <_ZNK9__gnu_cxx17__normal_iteratorIPhSt6vectorIhSaIhEEE4baseEv>
    27c3:	48 8b 30             	mov    (%rax),%rsi
    27c6:	48 8b 45 a8          	mov    -0x58(%rbp),%rax
    27ca:	48 8b 00             	mov    (%rax),%rax
    27cd:	48 8b 55 d0          	mov    -0x30(%rbp),%rdx
    27d1:	48 89 d9             	mov    %rbx,%rcx
    27d4:	48 89 c7             	mov    %rax,%rdi
    27d7:	e8 1f 07 00 00       	callq  2efb <_ZSt34__uninitialized_move_if_noexcept_aIPhS0_SaIhEET0_T_S3_S2_RT1_>
    27dc:	48 89 45 b8          	mov    %rax,-0x48(%rbp)
    27e0:	48 8b 45 a8          	mov    -0x58(%rbp),%rax
    27e4:	48 89 c7             	mov    %rax,%rdi
    27e7:	e8 8a fb ff ff       	callq  2376 <_ZNSt12_Vector_baseIhSaIhEE19_M_get_Tp_allocatorEv>
    27ec:	48 89 c1             	mov    %rax,%rcx
    27ef:	48 8b 55 b8          	mov    -0x48(%rbp),%rdx
    27f3:	48 8b 75 90          	mov    -0x70(%rbp),%rsi
    27f7:	48 8b 45 98          	mov    -0x68(%rbp),%rax
    27fb:	48 89 c7             	mov    %rax,%rdi
    27fe:	e8 9b 05 00 00       	callq  2d9e <_ZSt22__uninitialized_copy_aIPhS0_hET0_T_S2_S1_RSaIT1_E>
    2803:	48 89 45 b8          	mov    %rax,-0x48(%rbp)
    2807:	48 8b 45 a8          	mov    -0x58(%rbp),%rax
    280b:	48 89 c7             	mov    %rax,%rdi
    280e:	e8 63 fb ff ff       	callq  2376 <_ZNSt12_Vector_baseIhSaIhEE19_M_get_Tp_allocatorEv>
    2813:	49 89 c4             	mov    %rax,%r12
    2816:	48 8b 45 a8          	mov    -0x58(%rbp),%rax
    281a:	48 8b 58 08          	mov    0x8(%rax),%rbx
    281e:	48 8d 45 a0          	lea    -0x60(%rbp),%rax
    2822:	48 89 c7             	mov    %rax,%rdi
    2825:	e8 3e f9 ff ff       	callq  2168 <_ZNK9__gnu_cxx17__normal_iteratorIPhSt6vectorIhSaIhEEE4baseEv>
    282a:	48 8b 00             	mov    (%rax),%rax
    282d:	48 8b 55 b8          	mov    -0x48(%rbp),%rdx
    2831:	4c 89 e1             	mov    %r12,%rcx
    2834:	48 89 de             	mov    %rbx,%rsi
    2837:	48 89 c7             	mov    %rax,%rdi
    283a:	e8 bc 06 00 00       	callq  2efb <_ZSt34__uninitialized_move_if_noexcept_aIPhS0_SaIhEET0_T_S3_S2_RT1_>
    283f:	48 89 45 b8          	mov    %rax,-0x48(%rbp)
    2843:	48 8b 45 a8          	mov    -0x58(%rbp),%rax
    2847:	48 89 c7             	mov    %rax,%rdi
    284a:	e8 27 fb ff ff       	callq  2376 <_ZNSt12_Vector_baseIhSaIhEE19_M_get_Tp_allocatorEv>
    284f:	48 89 c2             	mov    %rax,%rdx
    2852:	48 8b 45 a8          	mov    -0x58(%rbp),%rax
    2856:	48 8b 48 08          	mov    0x8(%rax),%rcx
    285a:	48 8b 45 a8          	mov    -0x58(%rbp),%rax
    285e:	48 8b 00             	mov    (%rax),%rax
    2861:	48 89 ce             	mov    %rcx,%rsi
    2864:	48 89 c7             	mov    %rax,%rdi
    2867:	e8 1c fb ff ff       	callq  2388 <_ZSt8_DestroyIPhhEvT_S1_RSaIT0_E>
    286c:	48 8b 45 a8          	mov    -0x58(%rbp),%rax
    2870:	48 8b 55 a8          	mov    -0x58(%rbp),%rdx
    2874:	48 8b 4a 10          	mov    0x10(%rdx),%rcx
    2878:	48 8b 55 a8          	mov    -0x58(%rbp),%rdx
    287c:	48 8b 12             	mov    (%rdx),%rdx
    287f:	48 29 d1             	sub    %rdx,%rcx
    2882:	48 89 ca             	mov    %rcx,%rdx
    2885:	48 89 d6             	mov    %rdx,%rsi
    2888:	48 8b 55 a8          	mov    -0x58(%rbp),%rdx
    288c:	48 8b 0a             	mov    (%rdx),%rcx
    288f:	48 89 f2             	mov    %rsi,%rdx
    2892:	48 89 ce             	mov    %rcx,%rsi
    2895:	48 89 c7             	mov    %rax,%rdi
    2898:	e8 9f fa ff ff       	callq  233c <_ZNSt12_Vector_baseIhSaIhEE13_M_deallocateEPhm>
    289d:	48 8b 45 a8          	mov    -0x58(%rbp),%rax
    28a1:	48 8b 55 d0          	mov    -0x30(%rbp),%rdx
    28a5:	48 89 10             	mov    %rdx,(%rax)
    28a8:	48 8b 45 a8          	mov    -0x58(%rbp),%rax
    28ac:	48 8b 55 b8          	mov    -0x48(%rbp),%rdx
    28b0:	48 89 50 08          	mov    %rdx,0x8(%rax)
    28b4:	48 8b 55 d0          	mov    -0x30(%rbp),%rdx
    28b8:	48 8b 45 c8          	mov    -0x38(%rbp),%rax
    28bc:	48 01 c2             	add    %rax,%rdx
    28bf:	48 8b 45 a8          	mov    -0x58(%rbp),%rax
    28c3:	48 89 50 10          	mov    %rdx,0x10(%rax)
    28c7:	eb 61                	jmp    292a <_ZNSt6vectorIhSaIhEE15_M_range_insertIPhEEvN9__gnu_cxx17__normal_iteratorIS3_S1_EET_S7_St20forward_iterator_tag+0x3da>
    28c9:	f3 0f 1e fa          	endbr64 
    28cd:	48 89 c7             	mov    %rax,%rdi
    28d0:	e8 db e8 ff ff       	callq  11b0 <__cxa_begin_catch@plt>
    28d5:	48 8b 45 a8          	mov    -0x58(%rbp),%rax
    28d9:	48 89 c7             	mov    %rax,%rdi
    28dc:	e8 95 fa ff ff       	callq  2376 <_ZNSt12_Vector_baseIhSaIhEE19_M_get_Tp_allocatorEv>
    28e1:	48 89 c2             	mov    %rax,%rdx
    28e4:	48 8b 4d b8          	mov    -0x48(%rbp),%rcx
    28e8:	48 8b 45 d0          	mov    -0x30(%rbp),%rax
    28ec:	48 89 ce             	mov    %rcx,%rsi
    28ef:	48 89 c7             	mov    %rax,%rdi
    28f2:	e8 91 fa ff ff       	callq  2388 <_ZSt8_DestroyIPhhEvT_S1_RSaIT0_E>
    28f7:	48 8b 45 a8          	mov    -0x58(%rbp),%rax
    28fb:	48 8b 55 c8          	mov    -0x38(%rbp),%rdx
    28ff:	48 8b 4d d0          	mov    -0x30(%rbp),%rcx
    2903:	48 89 ce             	mov    %rcx,%rsi
    2906:	48 89 c7             	mov    %rax,%rdi
    2909:	e8 2e fa ff ff       	callq  233c <_ZNSt12_Vector_baseIhSaIhEE13_M_deallocateEPhm>
    290e:	e8 5d e9 ff ff       	callq  1270 <__cxa_rethrow@plt>
    2913:	f3 0f 1e fa          	endbr64 
    2917:	48 89 c3             	mov    %rax,%rbx
    291a:	e8 81 e9 ff ff       	callq  12a0 <__cxa_end_catch@plt>
    291f:	48 89 d8             	mov    %rbx,%rax
    2922:	48 89 c7             	mov    %rax,%rdi
    2925:	e8 86 e9 ff ff       	callq  12b0 <_Unwind_Resume@plt>
    292a:	90                   	nop
    292b:	48 8b 45 e8          	mov    -0x18(%rbp),%rax
    292f:	64 48 33 04 25 28 00 	xor    %fs:0x28,%rax
    2936:	00 00 
    2938:	74 05                	je     293f <_ZNSt6vectorIhSaIhEE15_M_range_insertIPhEEvN9__gnu_cxx17__normal_iteratorIS3_S1_EET_S7_St20forward_iterator_tag+0x3ef>
    293a:	e8 01 e9 ff ff       	callq  1240 <__stack_chk_fail@plt>
    293f:	48 83 c4 60          	add    $0x60,%rsp
    2943:	5b                   	pop    %rbx
    2944:	41 5c                	pop    %r12
    2946:	5d                   	pop    %rbp
    2947:	c3                   	retq   

0000000000002948 <_ZN9__gnu_cxx13new_allocatorIhEC1Ev>:
    2948:	f3 0f 1e fa          	endbr64 
    294c:	55                   	push   %rbp
    294d:	48 89 e5             	mov    %rsp,%rbp
    2950:	48 89 7d f8          	mov    %rdi,-0x8(%rbp)
    2954:	90                   	nop
    2955:	5d                   	pop    %rbp
    2956:	c3                   	retq   

0000000000002957 <_ZNSt16allocator_traitsISaIhEE10deallocateERS0_Phm>:
    2957:	f3 0f 1e fa          	endbr64 
    295b:	55                   	push   %rbp
    295c:	48 89 e5             	mov    %rsp,%rbp
    295f:	48 83 ec 20          	sub    $0x20,%rsp
    2963:	48 89 7d f8          	mov    %rdi,-0x8(%rbp)
    2967:	48 89 75 f0          	mov    %rsi,-0x10(%rbp)
    296b:	48 89 55 e8          	mov    %rdx,-0x18(%rbp)
    296f:	48 8b 55 e8          	mov    -0x18(%rbp),%rdx
    2973:	48 8b 4d f0          	mov    -0x10(%rbp),%rcx
    2977:	48 8b 45 f8          	mov    -0x8(%rbp),%rax
    297b:	48 89 ce             	mov    %rcx,%rsi
    297e:	48 89 c7             	mov    %rax,%rdi
    2981:	e8 ce 05 00 00       	callq  2f54 <_ZN9__gnu_cxx13new_allocatorIhE10deallocateEPhm>
    2986:	90                   	nop
    2987:	c9                   	leaveq 
    2988:	c3                   	retq   

0000000000002989 <_ZSt8_DestroyIPhEvT_S1_>:
    2989:	f3 0f 1e fa          	endbr64 
    298d:	55                   	push   %rbp
    298e:	48 89 e5             	mov    %rsp,%rbp
    2991:	48 83 ec 10          	sub    $0x10,%rsp
    2995:	48 89 7d f8          	mov    %rdi,-0x8(%rbp)
    2999:	48 89 75 f0          	mov    %rsi,-0x10(%rbp)
    299d:	48 8b 55 f0          	mov    -0x10(%rbp),%rdx
    29a1:	48 8b 45 f8          	mov    -0x8(%rbp),%rax
    29a5:	48 89 d6             	mov    %rdx,%rsi
    29a8:	48 89 c7             	mov    %rax,%rdi
    29ab:	e8 ca 05 00 00       	callq  2f7a <_ZNSt12_Destroy_auxILb1EE9__destroyIPhEEvT_S3_>
    29b0:	90                   	nop
    29b1:	c9                   	leaveq 
    29b2:	c3                   	retq   

00000000000029b3 <_ZSt7forwardIhEOT_RNSt16remove_referenceIS0_E4typeE>:
    29b3:	f3 0f 1e fa          	endbr64 
    29b7:	55                   	push   %rbp
    29b8:	48 89 e5             	mov    %rsp,%rbp
    29bb:	48 89 7d f8          	mov    %rdi,-0x8(%rbp)
    29bf:	48 8b 45 f8          	mov    -0x8(%rbp),%rax
    29c3:	5d                   	pop    %rbp
    29c4:	c3                   	retq   

00000000000029c5 <_ZNSt16allocator_traitsISaIhEE9constructIhJhEEEvRS0_PT_DpOT0_>:
    29c5:	f3 0f 1e fa          	endbr64 
    29c9:	55                   	push   %rbp
    29ca:	48 89 e5             	mov    %rsp,%rbp
    29cd:	48 83 ec 20          	sub    $0x20,%rsp
    29d1:	48 89 7d f8          	mov    %rdi,-0x8(%rbp)
    29d5:	48 89 75 f0          	mov    %rsi,-0x10(%rbp)
    29d9:	48 89 55 e8          	mov    %rdx,-0x18(%rbp)
    29dd:	48 8b 45 e8          	mov    -0x18(%rbp),%rax
    29e1:	48 89 c7             	mov    %rax,%rdi
    29e4:	e8 ca ff ff ff       	callq  29b3 <_ZSt7forwardIhEOT_RNSt16remove_referenceIS0_E4typeE>
    29e9:	48 89 c2             	mov    %rax,%rdx
    29ec:	48 8b 4d f0          	mov    -0x10(%rbp),%rcx
    29f0:	48 8b 45 f8          	mov    -0x8(%rbp),%rax
    29f4:	48 89 ce             	mov    %rcx,%rsi
    29f7:	48 89 c7             	mov    %rax,%rdi
    29fa:	e8 8f 05 00 00       	callq  2f8e <_ZN9__gnu_cxx13new_allocatorIhE9constructIhJhEEEvPT_DpOT0_>
    29ff:	90                   	nop
    2a00:	c9                   	leaveq 
    2a01:	c3                   	retq   

0000000000002a02 <_ZNSt6vectorIhSaIhEE17_M_realloc_insertIJhEEEvN9__gnu_cxx17__normal_iteratorIPhS1_EEDpOT_>:
    2a02:	f3 0f 1e fa          	endbr64 
    2a06:	55                   	push   %rbp
    2a07:	48 89 e5             	mov    %rsp,%rbp
    2a0a:	53                   	push   %rbx
    2a0b:	48 83 ec 68          	sub    $0x68,%rsp
    2a0f:	48 89 7d a8          	mov    %rdi,-0x58(%rbp)
    2a13:	48 89 75 a0          	mov    %rsi,-0x60(%rbp)
    2a17:	48 89 55 98          	mov    %rdx,-0x68(%rbp)
    2a1b:	64 48 8b 04 25 28 00 	mov    %fs:0x28,%rax
    2a22:	00 00 
    2a24:	48 89 45 e8          	mov    %rax,-0x18(%rbp)
    2a28:	31 c0                	xor    %eax,%eax
    2a2a:	48 8b 45 a8          	mov    -0x58(%rbp),%rax
    2a2e:	48 8d 15 3b 16 00 00 	lea    0x163b(%rip),%rdx        # 4070 <_ZL4SIZE+0x20>
    2a35:	be 01 00 00 00       	mov    $0x1,%esi
    2a3a:	48 89 c7             	mov    %rax,%rdi
    2a3d:	e8 92 03 00 00       	callq  2dd4 <_ZNKSt6vectorIhSaIhEE12_M_check_lenEmPKc>
    2a42:	48 89 45 b8          	mov    %rax,-0x48(%rbp)
    2a46:	48 8b 45 a8          	mov    -0x58(%rbp),%rax
    2a4a:	48 8b 00             	mov    (%rax),%rax
    2a4d:	48 89 45 c0          	mov    %rax,-0x40(%rbp)
    2a51:	48 8b 45 a8          	mov    -0x58(%rbp),%rax
    2a55:	48 8b 40 08          	mov    0x8(%rax),%rax
    2a59:	48 89 45 c8          	mov    %rax,-0x38(%rbp)
    2a5d:	48 8b 45 a8          	mov    -0x58(%rbp),%rax
    2a61:	48 89 c7             	mov    %rax,%rdi
    2a64:	e8 73 f5 ff ff       	callq  1fdc <_ZNSt6vectorIhSaIhEE5beginEv>
    2a69:	48 89 45 b0          	mov    %rax,-0x50(%rbp)
    2a6d:	48 8d 55 b0          	lea    -0x50(%rbp),%rdx
    2a71:	48 8d 45 a0          	lea    -0x60(%rbp),%rax
    2a75:	48 89 d6             	mov    %rdx,%rsi
    2a78:	48 89 c7             	mov    %rax,%rdi
    2a7b:	e8 a8 01 00 00       	callq  2c28 <_ZN9__gnu_cxxmiIPhSt6vectorIhSaIhEEEENS_17__normal_iteratorIT_T0_E15difference_typeERKS8_SB_>
    2a80:	48 89 45 d0          	mov    %rax,-0x30(%rbp)
    2a84:	48 8b 45 a8          	mov    -0x58(%rbp),%rax
    2a88:	48 8b 55 b8          	mov    -0x48(%rbp),%rdx
    2a8c:	48 89 d6             	mov    %rdx,%rsi
    2a8f:	48 89 c7             	mov    %rax,%rdi
    2a92:	e8 2d 04 00 00       	callq  2ec4 <_ZNSt12_Vector_baseIhSaIhEE11_M_allocateEm>
    2a97:	48 89 45 d8          	mov    %rax,-0x28(%rbp)
    2a9b:	48 8b 45 d8          	mov    -0x28(%rbp),%rax
    2a9f:	48 89 45 e0          	mov    %rax,-0x20(%rbp)
    2aa3:	48 8b 45 98          	mov    -0x68(%rbp),%rax
    2aa7:	48 89 c7             	mov    %rax,%rdi
    2aaa:	e8 04 ff ff ff       	callq  29b3 <_ZSt7forwardIhEOT_RNSt16remove_referenceIS0_E4typeE>
    2aaf:	48 89 c2             	mov    %rax,%rdx
    2ab2:	48 8b 4d d8          	mov    -0x28(%rbp),%rcx
    2ab6:	48 8b 45 d0          	mov    -0x30(%rbp),%rax
    2aba:	48 01 c1             	add    %rax,%rcx
    2abd:	48 8b 45 a8          	mov    -0x58(%rbp),%rax
    2ac1:	48 89 ce             	mov    %rcx,%rsi
    2ac4:	48 89 c7             	mov    %rax,%rdi
    2ac7:	e8 f9 fe ff ff       	callq  29c5 <_ZNSt16allocator_traitsISaIhEE9constructIhJhEEEvRS0_PT_DpOT0_>
    2acc:	48 c7 45 e0 00 00 00 	movq   $0x0,-0x20(%rbp)
    2ad3:	00 
    2ad4:	48 8b 45 a8          	mov    -0x58(%rbp),%rax
    2ad8:	48 89 c7             	mov    %rax,%rdi
    2adb:	e8 96 f8 ff ff       	callq  2376 <_ZNSt12_Vector_baseIhSaIhEE19_M_get_Tp_allocatorEv>
    2ae0:	48 89 c3             	mov    %rax,%rbx
    2ae3:	48 8d 45 a0          	lea    -0x60(%rbp),%rax
    2ae7:	48 89 c7             	mov    %rax,%rdi
    2aea:	e8 79 f6 ff ff       	callq  2168 <_ZNK9__gnu_cxx17__normal_iteratorIPhSt6vectorIhSaIhEEE4baseEv>
    2aef:	48 8b 30             	mov    (%rax),%rsi
    2af2:	48 8b 55 d8          	mov    -0x28(%rbp),%rdx
    2af6:	48 8b 45 c0          	mov    -0x40(%rbp),%rax
    2afa:	48 89 d9             	mov    %rbx,%rcx
    2afd:	48 89 c7             	mov    %rax,%rdi
    2b00:	e8 cc 04 00 00       	callq  2fd1 <_ZNSt6vectorIhSaIhEE11_S_relocateEPhS2_S2_RS0_>
    2b05:	48 89 45 e0          	mov    %rax,-0x20(%rbp)
    2b09:	48 83 45 e0 01       	addq   $0x1,-0x20(%rbp)
    2b0e:	48 8b 45 a8          	mov    -0x58(%rbp),%rax
    2b12:	48 89 c7             	mov    %rax,%rdi
    2b15:	e8 5c f8 ff ff       	callq  2376 <_ZNSt12_Vector_baseIhSaIhEE19_M_get_Tp_allocatorEv>
    2b1a:	48 89 c3             	mov    %rax,%rbx
    2b1d:	48 8d 45 a0          	lea    -0x60(%rbp),%rax
    2b21:	48 89 c7             	mov    %rax,%rdi
    2b24:	e8 3f f6 ff ff       	callq  2168 <_ZNK9__gnu_cxx17__normal_iteratorIPhSt6vectorIhSaIhEEE4baseEv>
    2b29:	48 8b 00             	mov    (%rax),%rax
    2b2c:	48 8b 55 e0          	mov    -0x20(%rbp),%rdx
    2b30:	48 8b 75 c8          	mov    -0x38(%rbp),%rsi
    2b34:	48 89 d9             	mov    %rbx,%rcx
    2b37:	48 89 c7             	mov    %rax,%rdi
    2b3a:	e8 92 04 00 00       	callq  2fd1 <_ZNSt6vectorIhSaIhEE11_S_relocateEPhS2_S2_RS0_>
    2b3f:	48 89 45 e0          	mov    %rax,-0x20(%rbp)
    2b43:	48 8b 45 a8          	mov    -0x58(%rbp),%rax
    2b47:	48 8b 55 a8          	mov    -0x58(%rbp),%rdx
    2b4b:	48 8b 52 10          	mov    0x10(%rdx),%rdx
    2b4f:	48 2b 55 c0          	sub    -0x40(%rbp),%rdx
    2b53:	48 8b 4d c0          	mov    -0x40(%rbp),%rcx
    2b57:	48 89 ce             	mov    %rcx,%rsi
    2b5a:	48 89 c7             	mov    %rax,%rdi
    2b5d:	e8 da f7 ff ff       	callq  233c <_ZNSt12_Vector_baseIhSaIhEE13_M_deallocateEPhm>
    2b62:	48 8b 45 a8          	mov    -0x58(%rbp),%rax
    2b66:	48 8b 55 d8          	mov    -0x28(%rbp),%rdx
    2b6a:	48 89 10             	mov    %rdx,(%rax)
    2b6d:	48 8b 45 a8          	mov    -0x58(%rbp),%rax
    2b71:	48 8b 55 e0          	mov    -0x20(%rbp),%rdx
    2b75:	48 89 50 08          	mov    %rdx,0x8(%rax)
    2b79:	48 8b 55 d8          	mov    -0x28(%rbp),%rdx
    2b7d:	48 8b 45 b8          	mov    -0x48(%rbp),%rax
    2b81:	48 01 c2             	add    %rax,%rdx
    2b84:	48 8b 45 a8          	mov    -0x58(%rbp),%rax
    2b88:	48 89 50 10          	mov    %rdx,0x10(%rax)
    2b8c:	90                   	nop
    2b8d:	48 8b 45 e8          	mov    -0x18(%rbp),%rax
    2b91:	64 48 33 04 25 28 00 	xor    %fs:0x28,%rax
    2b98:	00 00 
    2b9a:	74 05                	je     2ba1 <_ZNSt6vectorIhSaIhEE17_M_realloc_insertIJhEEEvN9__gnu_cxx17__normal_iteratorIPhS1_EEDpOT_+0x19f>
    2b9c:	e8 9f e6 ff ff       	callq  1240 <__stack_chk_fail@plt>
    2ba1:	48 83 c4 68          	add    $0x68,%rsp
    2ba5:	5b                   	pop    %rbx
    2ba6:	5d                   	pop    %rbp
    2ba7:	c3                   	retq   

0000000000002ba8 <_ZNSt6vectorIhSaIhEE4backEv>:
    2ba8:	f3 0f 1e fa          	endbr64 
    2bac:	55                   	push   %rbp
    2bad:	48 89 e5             	mov    %rsp,%rbp
    2bb0:	48 83 ec 30          	sub    $0x30,%rsp
    2bb4:	48 89 7d d8          	mov    %rdi,-0x28(%rbp)
    2bb8:	64 48 8b 04 25 28 00 	mov    %fs:0x28,%rax
    2bbf:	00 00 
    2bc1:	48 89 45 f8          	mov    %rax,-0x8(%rbp)
    2bc5:	31 c0                	xor    %eax,%eax
    2bc7:	48 8b 45 d8          	mov    -0x28(%rbp),%rax
    2bcb:	48 89 c7             	mov    %rax,%rdi
    2bce:	e8 0d f1 ff ff       	callq  1ce0 <_ZNSt6vectorIhSaIhEE3endEv>
    2bd3:	48 89 45 e8          	mov    %rax,-0x18(%rbp)
    2bd7:	48 8d 45 e8          	lea    -0x18(%rbp),%rax
    2bdb:	be 01 00 00 00       	mov    $0x1,%esi
    2be0:	48 89 c7             	mov    %rax,%rdi
    2be3:	e8 42 04 00 00       	callq  302a <_ZNK9__gnu_cxx17__normal_iteratorIPhSt6vectorIhSaIhEEEmiEl>
    2be8:	48 89 45 f0          	mov    %rax,-0x10(%rbp)
    2bec:	48 8d 45 f0          	lea    -0x10(%rbp),%rax
    2bf0:	48 89 c7             	mov    %rax,%rdi
    2bf3:	e8 94 f4 ff ff       	callq  208c <_ZNK9__gnu_cxx17__normal_iteratorIPhSt6vectorIhSaIhEEEdeEv>
    2bf8:	48 8b 55 f8          	mov    -0x8(%rbp),%rdx
    2bfc:	64 48 33 14 25 28 00 	xor    %fs:0x28,%rdx
    2c03:	00 00 
    2c05:	74 05                	je     2c0c <_ZNSt6vectorIhSaIhEE4backEv+0x64>
    2c07:	e8 34 e6 ff ff       	callq  1240 <__stack_chk_fail@plt>
    2c0c:	c9                   	leaveq 
    2c0d:	c3                   	retq   

0000000000002c0e <_ZSt10__distanceIPhENSt15iterator_traitsIT_E15difference_typeES2_S2_St26random_access_iterator_tag>:
    2c0e:	f3 0f 1e fa          	endbr64 
    2c12:	55                   	push   %rbp
    2c13:	48 89 e5             	mov    %rsp,%rbp
    2c16:	48 89 7d f8          	mov    %rdi,-0x8(%rbp)
    2c1a:	48 89 75 f0          	mov    %rsi,-0x10(%rbp)
    2c1e:	48 8b 45 f0          	mov    -0x10(%rbp),%rax
    2c22:	48 2b 45 f8          	sub    -0x8(%rbp),%rax
    2c26:	5d                   	pop    %rbp
    2c27:	c3                   	retq   

0000000000002c28 <_ZN9__gnu_cxxmiIPhSt6vectorIhSaIhEEEENS_17__normal_iteratorIT_T0_E15difference_typeERKS8_SB_>:
    2c28:	f3 0f 1e fa          	endbr64 
    2c2c:	55                   	push   %rbp
    2c2d:	48 89 e5             	mov    %rsp,%rbp
    2c30:	53                   	push   %rbx
    2c31:	48 83 ec 18          	sub    $0x18,%rsp
    2c35:	48 89 7d e8          	mov    %rdi,-0x18(%rbp)
    2c39:	48 89 75 e0          	mov    %rsi,-0x20(%rbp)
    2c3d:	48 8b 45 e8          	mov    -0x18(%rbp),%rax
    2c41:	48 89 c7             	mov    %rax,%rdi
    2c44:	e8 1f f5 ff ff       	callq  2168 <_ZNK9__gnu_cxx17__normal_iteratorIPhSt6vectorIhSaIhEEE4baseEv>
    2c49:	48 8b 18             	mov    (%rax),%rbx
    2c4c:	48 8b 45 e0          	mov    -0x20(%rbp),%rax
    2c50:	48 89 c7             	mov    %rax,%rdi
    2c53:	e8 10 f5 ff ff       	callq  2168 <_ZNK9__gnu_cxx17__normal_iteratorIPhSt6vectorIhSaIhEEE4baseEv>
    2c58:	48 8b 00             	mov    (%rax),%rax
    2c5b:	48 29 c3             	sub    %rax,%rbx
    2c5e:	48 89 d8             	mov    %rbx,%rax
    2c61:	48 83 c4 18          	add    $0x18,%rsp
    2c65:	5b                   	pop    %rbx
    2c66:	5d                   	pop    %rbp
    2c67:	c3                   	retq   

0000000000002c68 <_ZSt22__uninitialized_move_aIPhS0_SaIhEET0_T_S3_S2_RT1_>:
    2c68:	f3 0f 1e fa          	endbr64 
    2c6c:	55                   	push   %rbp
    2c6d:	48 89 e5             	mov    %rsp,%rbp
    2c70:	53                   	push   %rbx
    2c71:	48 83 ec 28          	sub    $0x28,%rsp
    2c75:	48 89 7d e8          	mov    %rdi,-0x18(%rbp)
    2c79:	48 89 75 e0          	mov    %rsi,-0x20(%rbp)
    2c7d:	48 89 55 d8          	mov    %rdx,-0x28(%rbp)
    2c81:	48 89 4d d0          	mov    %rcx,-0x30(%rbp)
    2c85:	48 8b 45 e0          	mov    -0x20(%rbp),%rax
    2c89:	48 89 c7             	mov    %rax,%rdi
    2c8c:	e8 fe 03 00 00       	callq  308f <_ZSt18make_move_iteratorIPhESt13move_iteratorIT_ES2_>
    2c91:	48 89 c3             	mov    %rax,%rbx
    2c94:	48 8b 45 e8          	mov    -0x18(%rbp),%rax
    2c98:	48 89 c7             	mov    %rax,%rdi
    2c9b:	e8 ef 03 00 00       	callq  308f <_ZSt18make_move_iteratorIPhESt13move_iteratorIT_ES2_>
    2ca0:	48 89 c7             	mov    %rax,%rdi
    2ca3:	48 8b 55 d0          	mov    -0x30(%rbp),%rdx
    2ca7:	48 8b 45 d8          	mov    -0x28(%rbp),%rax
    2cab:	48 89 d1             	mov    %rdx,%rcx
    2cae:	48 89 c2             	mov    %rax,%rdx
    2cb1:	48 89 de             	mov    %rbx,%rsi
    2cb4:	e8 22 04 00 00       	callq  30db <_ZSt22__uninitialized_copy_aISt13move_iteratorIPhES1_hET0_T_S4_S3_RSaIT1_E>
    2cb9:	48 83 c4 28          	add    $0x28,%rsp
    2cbd:	5b                   	pop    %rbx
    2cbe:	5d                   	pop    %rbp
    2cbf:	c3                   	retq   

0000000000002cc0 <_ZSt13move_backwardIPhS0_ET0_T_S2_S1_>:
    2cc0:	f3 0f 1e fa          	endbr64 
    2cc4:	55                   	push   %rbp
    2cc5:	48 89 e5             	mov    %rsp,%rbp
    2cc8:	53                   	push   %rbx
    2cc9:	48 83 ec 28          	sub    $0x28,%rsp
    2ccd:	48 89 7d e8          	mov    %rdi,-0x18(%rbp)
    2cd1:	48 89 75 e0          	mov    %rsi,-0x20(%rbp)
    2cd5:	48 89 55 d8          	mov    %rdx,-0x28(%rbp)
    2cd9:	48 8b 45 e0          	mov    -0x20(%rbp),%rax
    2cdd:	48 89 c7             	mov    %rax,%rdi
    2ce0:	e8 2b 04 00 00       	callq  3110 <_ZSt12__miter_baseIPhET_S1_>
    2ce5:	48 89 c3             	mov    %rax,%rbx
    2ce8:	48 8b 45 e8          	mov    -0x18(%rbp),%rax
    2cec:	48 89 c7             	mov    %rax,%rdi
    2cef:	e8 1c 04 00 00       	callq  3110 <_ZSt12__miter_baseIPhET_S1_>
    2cf4:	48 89 c1             	mov    %rax,%rcx
    2cf7:	48 8b 45 d8          	mov    -0x28(%rbp),%rax
    2cfb:	48 89 c2             	mov    %rax,%rdx
    2cfe:	48 89 de             	mov    %rbx,%rsi
    2d01:	48 89 cf             	mov    %rcx,%rdi
    2d04:	e8 19 04 00 00       	callq  3122 <_ZSt23__copy_move_backward_a2ILb1EPhS0_ET1_T0_S2_S1_>
    2d09:	48 83 c4 28          	add    $0x28,%rsp
    2d0d:	5b                   	pop    %rbx
    2d0e:	5d                   	pop    %rbp
    2d0f:	c3                   	retq   

0000000000002d10 <_ZSt4copyIPhN9__gnu_cxx17__normal_iteratorIS0_St6vectorIhSaIhEEEEET0_T_S8_S7_>:
    2d10:	f3 0f 1e fa          	endbr64 
    2d14:	55                   	push   %rbp
    2d15:	48 89 e5             	mov    %rsp,%rbp
    2d18:	53                   	push   %rbx
    2d19:	48 83 ec 28          	sub    $0x28,%rsp
    2d1d:	48 89 7d e8          	mov    %rdi,-0x18(%rbp)
    2d21:	48 89 75 e0          	mov    %rsi,-0x20(%rbp)
    2d25:	48 89 55 d8          	mov    %rdx,-0x28(%rbp)
    2d29:	48 8b 45 e0          	mov    -0x20(%rbp),%rax
    2d2d:	48 89 c7             	mov    %rax,%rdi
    2d30:	e8 db 03 00 00       	callq  3110 <_ZSt12__miter_baseIPhET_S1_>
    2d35:	48 89 c3             	mov    %rax,%rbx
    2d38:	48 8b 45 e8          	mov    -0x18(%rbp),%rax
    2d3c:	48 89 c7             	mov    %rax,%rdi
    2d3f:	e8 cc 03 00 00       	callq  3110 <_ZSt12__miter_baseIPhET_S1_>
    2d44:	48 89 c1             	mov    %rax,%rcx
    2d47:	48 8b 45 d8          	mov    -0x28(%rbp),%rax
    2d4b:	48 89 c2             	mov    %rax,%rdx
    2d4e:	48 89 de             	mov    %rbx,%rsi
    2d51:	48 89 cf             	mov    %rcx,%rdi
    2d54:	e8 37 04 00 00       	callq  3190 <_ZSt14__copy_move_a2ILb0EPhN9__gnu_cxx17__normal_iteratorIS0_St6vectorIhSaIhEEEEET1_T0_S8_S7_>
    2d59:	48 83 c4 28          	add    $0x28,%rsp
    2d5d:	5b                   	pop    %rbx
    2d5e:	5d                   	pop    %rbp
    2d5f:	c3                   	retq   

0000000000002d60 <_ZSt7advanceIPhmEvRT_T0_>:
    2d60:	f3 0f 1e fa          	endbr64 
    2d64:	55                   	push   %rbp
    2d65:	48 89 e5             	mov    %rsp,%rbp
    2d68:	48 83 ec 20          	sub    $0x20,%rsp
    2d6c:	48 89 7d e8          	mov    %rdi,-0x18(%rbp)
    2d70:	48 89 75 e0          	mov    %rsi,-0x20(%rbp)
    2d74:	48 8b 45 e0          	mov    -0x20(%rbp),%rax
    2d78:	48 89 45 f8          	mov    %rax,-0x8(%rbp)
    2d7c:	48 8b 45 e8          	mov    -0x18(%rbp),%rax
    2d80:	48 89 c7             	mov    %rax,%rdi
    2d83:	e8 84 f7 ff ff       	callq  250c <_ZSt19__iterator_categoryIPhENSt15iterator_traitsIT_E17iterator_categoryERKS2_>
    2d88:	48 8b 55 f8          	mov    -0x8(%rbp),%rdx
    2d8c:	48 8b 45 e8          	mov    -0x18(%rbp),%rax
    2d90:	48 89 d6             	mov    %rdx,%rsi
    2d93:	48 89 c7             	mov    %rax,%rdi
    2d96:	e8 63 04 00 00       	callq  31fe <_ZSt9__advanceIPhlEvRT_T0_St26random_access_iterator_tag>
    2d9b:	90                   	nop
    2d9c:	c9                   	leaveq 
    2d9d:	c3                   	retq   

0000000000002d9e <_ZSt22__uninitialized_copy_aIPhS0_hET0_T_S2_S1_RSaIT1_E>:
    2d9e:	f3 0f 1e fa          	endbr64 
    2da2:	55                   	push   %rbp
    2da3:	48 89 e5             	mov    %rsp,%rbp
    2da6:	48 83 ec 20          	sub    $0x20,%rsp
    2daa:	48 89 7d f8          	mov    %rdi,-0x8(%rbp)
    2dae:	48 89 75 f0          	mov    %rsi,-0x10(%rbp)
    2db2:	48 89 55 e8          	mov    %rdx,-0x18(%rbp)
    2db6:	48 89 4d e0          	mov    %rcx,-0x20(%rbp)
    2dba:	48 8b 55 e8          	mov    -0x18(%rbp),%rdx
    2dbe:	48 8b 4d f0          	mov    -0x10(%rbp),%rcx
    2dc2:	48 8b 45 f8          	mov    -0x8(%rbp),%rax
    2dc6:	48 89 ce             	mov    %rcx,%rsi
    2dc9:	48 89 c7             	mov    %rax,%rdi
    2dcc:	e8 55 04 00 00       	callq  3226 <_ZSt18uninitialized_copyIPhS0_ET0_T_S2_S1_>
    2dd1:	c9                   	leaveq 
    2dd2:	c3                   	retq   
    2dd3:	90                   	nop

0000000000002dd4 <_ZNKSt6vectorIhSaIhEE12_M_check_lenEmPKc>:
    2dd4:	f3 0f 1e fa          	endbr64 
    2dd8:	55                   	push   %rbp
    2dd9:	48 89 e5             	mov    %rsp,%rbp
    2ddc:	53                   	push   %rbx
    2ddd:	48 83 ec 48          	sub    $0x48,%rsp
    2de1:	48 89 7d c8          	mov    %rdi,-0x38(%rbp)
    2de5:	48 89 75 c0          	mov    %rsi,-0x40(%rbp)
    2de9:	48 89 55 b8          	mov    %rdx,-0x48(%rbp)
    2ded:	64 48 8b 04 25 28 00 	mov    %fs:0x28,%rax
    2df4:	00 00 
    2df6:	48 89 45 e8          	mov    %rax,-0x18(%rbp)
    2dfa:	31 c0                	xor    %eax,%eax
    2dfc:	48 8b 45 c8          	mov    -0x38(%rbp),%rax
    2e00:	48 89 c7             	mov    %rax,%rdi
    2e03:	e8 54 04 00 00       	callq  325c <_ZNKSt6vectorIhSaIhEE8max_sizeEv>
    2e08:	48 89 c3             	mov    %rax,%rbx
    2e0b:	48 8b 45 c8          	mov    -0x38(%rbp),%rax
    2e0f:	48 89 c7             	mov    %rax,%rdi
    2e12:	e8 6b 04 00 00       	callq  3282 <_ZNKSt6vectorIhSaIhEE4sizeEv>
    2e17:	48 29 c3             	sub    %rax,%rbx
    2e1a:	48 89 da             	mov    %rbx,%rdx
    2e1d:	48 8b 45 c0          	mov    -0x40(%rbp),%rax
    2e21:	48 39 c2             	cmp    %rax,%rdx
    2e24:	0f 92 c0             	setb   %al
    2e27:	84 c0                	test   %al,%al
    2e29:	74 0c                	je     2e37 <_ZNKSt6vectorIhSaIhEE12_M_check_lenEmPKc+0x63>
    2e2b:	48 8b 45 b8          	mov    -0x48(%rbp),%rax
    2e2f:	48 89 c7             	mov    %rax,%rdi
    2e32:	e8 89 e3 ff ff       	callq  11c0 <_ZSt20__throw_length_errorPKc@plt>
    2e37:	48 8b 45 c8          	mov    -0x38(%rbp),%rax
    2e3b:	48 89 c7             	mov    %rax,%rdi
    2e3e:	e8 3f 04 00 00       	callq  3282 <_ZNKSt6vectorIhSaIhEE4sizeEv>
    2e43:	48 89 c3             	mov    %rax,%rbx
    2e46:	48 8b 45 c8          	mov    -0x38(%rbp),%rax
    2e4a:	48 89 c7             	mov    %rax,%rdi
    2e4d:	e8 30 04 00 00       	callq  3282 <_ZNKSt6vectorIhSaIhEE4sizeEv>
    2e52:	48 89 45 d8          	mov    %rax,-0x28(%rbp)
    2e56:	48 8d 55 c0          	lea    -0x40(%rbp),%rdx
    2e5a:	48 8d 45 d8          	lea    -0x28(%rbp),%rax
    2e5e:	48 89 d6             	mov    %rdx,%rsi
    2e61:	48 89 c7             	mov    %rax,%rdi
    2e64:	e8 3c 04 00 00       	callq  32a5 <_ZSt3maxImERKT_S2_S2_>
    2e69:	48 8b 00             	mov    (%rax),%rax
    2e6c:	48 01 d8             	add    %rbx,%rax
    2e6f:	48 89 45 e0          	mov    %rax,-0x20(%rbp)
    2e73:	48 8b 45 c8          	mov    -0x38(%rbp),%rax
    2e77:	48 89 c7             	mov    %rax,%rdi
    2e7a:	e8 03 04 00 00       	callq  3282 <_ZNKSt6vectorIhSaIhEE4sizeEv>
    2e7f:	48 39 45 e0          	cmp    %rax,-0x20(%rbp)
    2e83:	72 12                	jb     2e97 <_ZNKSt6vectorIhSaIhEE12_M_check_lenEmPKc+0xc3>
    2e85:	48 8b 45 c8          	mov    -0x38(%rbp),%rax
    2e89:	48 89 c7             	mov    %rax,%rdi
    2e8c:	e8 cb 03 00 00       	callq  325c <_ZNKSt6vectorIhSaIhEE8max_sizeEv>
    2e91:	48 39 45 e0          	cmp    %rax,-0x20(%rbp)
    2e95:	76 0e                	jbe    2ea5 <_ZNKSt6vectorIhSaIhEE12_M_check_lenEmPKc+0xd1>
    2e97:	48 8b 45 c8          	mov    -0x38(%rbp),%rax
    2e9b:	48 89 c7             	mov    %rax,%rdi
    2e9e:	e8 b9 03 00 00       	callq  325c <_ZNKSt6vectorIhSaIhEE8max_sizeEv>
    2ea3:	eb 04                	jmp    2ea9 <_ZNKSt6vectorIhSaIhEE12_M_check_lenEmPKc+0xd5>
    2ea5:	48 8b 45 e0          	mov    -0x20(%rbp),%rax
    2ea9:	48 8b 4d e8          	mov    -0x18(%rbp),%rcx
    2ead:	64 48 33 0c 25 28 00 	xor    %fs:0x28,%rcx
    2eb4:	00 00 
    2eb6:	74 05                	je     2ebd <_ZNKSt6vectorIhSaIhEE12_M_check_lenEmPKc+0xe9>
    2eb8:	e8 83 e3 ff ff       	callq  1240 <__stack_chk_fail@plt>
    2ebd:	48 83 c4 48          	add    $0x48,%rsp
    2ec1:	5b                   	pop    %rbx
    2ec2:	5d                   	pop    %rbp
    2ec3:	c3                   	retq   

0000000000002ec4 <_ZNSt12_Vector_baseIhSaIhEE11_M_allocateEm>:
    2ec4:	f3 0f 1e fa          	endbr64 
    2ec8:	55                   	push   %rbp
    2ec9:	48 89 e5             	mov    %rsp,%rbp
    2ecc:	48 83 ec 10          	sub    $0x10,%rsp
    2ed0:	48 89 7d f8          	mov    %rdi,-0x8(%rbp)
    2ed4:	48 89 75 f0          	mov    %rsi,-0x10(%rbp)
    2ed8:	48 83 7d f0 00       	cmpq   $0x0,-0x10(%rbp)
    2edd:	74 15                	je     2ef4 <_ZNSt12_Vector_baseIhSaIhEE11_M_allocateEm+0x30>
    2edf:	48 8b 45 f8          	mov    -0x8(%rbp),%rax
    2ee3:	48 8b 55 f0          	mov    -0x10(%rbp),%rdx
    2ee7:	48 89 d6             	mov    %rdx,%rsi
    2eea:	48 89 c7             	mov    %rax,%rdi
    2eed:	e8 e2 03 00 00       	callq  32d4 <_ZNSt16allocator_traitsISaIhEE8allocateERS0_m>
    2ef2:	eb 05                	jmp    2ef9 <_ZNSt12_Vector_baseIhSaIhEE11_M_allocateEm+0x35>
    2ef4:	b8 00 00 00 00       	mov    $0x0,%eax
    2ef9:	c9                   	leaveq 
    2efa:	c3                   	retq   

0000000000002efb <_ZSt34__uninitialized_move_if_noexcept_aIPhS0_SaIhEET0_T_S3_S2_RT1_>:
    2efb:	f3 0f 1e fa          	endbr64 
    2eff:	55                   	push   %rbp
    2f00:	48 89 e5             	mov    %rsp,%rbp
    2f03:	53                   	push   %rbx
    2f04:	48 83 ec 28          	sub    $0x28,%rsp
    2f08:	48 89 7d e8          	mov    %rdi,-0x18(%rbp)
    2f0c:	48 89 75 e0          	mov    %rsi,-0x20(%rbp)
    2f10:	48 89 55 d8          	mov    %rdx,-0x28(%rbp)
    2f14:	48 89 4d d0          	mov    %rcx,-0x30(%rbp)
    2f18:	48 8b 45 e0          	mov    -0x20(%rbp),%rax
    2f1c:	48 89 c7             	mov    %rax,%rdi
    2f1f:	e8 de 03 00 00       	callq  3302 <_ZSt32__make_move_if_noexcept_iteratorIhSt13move_iteratorIPhEET0_PT_>
    2f24:	48 89 c3             	mov    %rax,%rbx
    2f27:	48 8b 45 e8          	mov    -0x18(%rbp),%rax
    2f2b:	48 89 c7             	mov    %rax,%rdi
    2f2e:	e8 cf 03 00 00       	callq  3302 <_ZSt32__make_move_if_noexcept_iteratorIhSt13move_iteratorIPhEET0_PT_>
    2f33:	48 89 c7             	mov    %rax,%rdi
    2f36:	48 8b 55 d0          	mov    -0x30(%rbp),%rdx
    2f3a:	48 8b 45 d8          	mov    -0x28(%rbp),%rax
    2f3e:	48 89 d1             	mov    %rdx,%rcx
    2f41:	48 89 c2             	mov    %rax,%rdx
    2f44:	48 89 de             	mov    %rbx,%rsi
    2f47:	e8 8f 01 00 00       	callq  30db <_ZSt22__uninitialized_copy_aISt13move_iteratorIPhES1_hET0_T_S4_S3_RSaIT1_E>
    2f4c:	48 83 c4 28          	add    $0x28,%rsp
    2f50:	5b                   	pop    %rbx
    2f51:	5d                   	pop    %rbp
    2f52:	c3                   	retq   
    2f53:	90                   	nop

0000000000002f54 <_ZN9__gnu_cxx13new_allocatorIhE10deallocateEPhm>:
    2f54:	f3 0f 1e fa          	endbr64 
    2f58:	55                   	push   %rbp
    2f59:	48 89 e5             	mov    %rsp,%rbp
    2f5c:	48 83 ec 20          	sub    $0x20,%rsp
    2f60:	48 89 7d f8          	mov    %rdi,-0x8(%rbp)
    2f64:	48 89 75 f0          	mov    %rsi,-0x10(%rbp)
    2f68:	48 89 55 e8          	mov    %rdx,-0x18(%rbp)
    2f6c:	48 8b 45 f0          	mov    -0x10(%rbp),%rax
    2f70:	48 89 c7             	mov    %rax,%rdi
    2f73:	e8 88 e2 ff ff       	callq  1200 <_ZdlPv@plt>
    2f78:	c9                   	leaveq 
    2f79:	c3                   	retq   

0000000000002f7a <_ZNSt12_Destroy_auxILb1EE9__destroyIPhEEvT_S3_>:
    2f7a:	f3 0f 1e fa          	endbr64 
    2f7e:	55                   	push   %rbp
    2f7f:	48 89 e5             	mov    %rsp,%rbp
    2f82:	48 89 7d f8          	mov    %rdi,-0x8(%rbp)
    2f86:	48 89 75 f0          	mov    %rsi,-0x10(%rbp)
    2f8a:	90                   	nop
    2f8b:	5d                   	pop    %rbp
    2f8c:	c3                   	retq   
    2f8d:	90                   	nop

0000000000002f8e <_ZN9__gnu_cxx13new_allocatorIhE9constructIhJhEEEvPT_DpOT0_>:
    2f8e:	f3 0f 1e fa          	endbr64 
    2f92:	55                   	push   %rbp
    2f93:	48 89 e5             	mov    %rsp,%rbp
    2f96:	53                   	push   %rbx
    2f97:	48 83 ec 28          	sub    $0x28,%rsp
    2f9b:	48 89 7d e8          	mov    %rdi,-0x18(%rbp)
    2f9f:	48 89 75 e0          	mov    %rsi,-0x20(%rbp)
    2fa3:	48 89 55 d8          	mov    %rdx,-0x28(%rbp)
    2fa7:	48 8b 45 d8          	mov    -0x28(%rbp),%rax
    2fab:	48 89 c7             	mov    %rax,%rdi
    2fae:	e8 00 fa ff ff       	callq  29b3 <_ZSt7forwardIhEOT_RNSt16remove_referenceIS0_E4typeE>
    2fb3:	0f b6 18             	movzbl (%rax),%ebx
    2fb6:	48 8b 45 e0          	mov    -0x20(%rbp),%rax
    2fba:	48 89 c6             	mov    %rax,%rsi
    2fbd:	bf 01 00 00 00       	mov    $0x1,%edi
    2fc2:	e8 fd e6 ff ff       	callq  16c4 <_ZnwmPv>
    2fc7:	88 18                	mov    %bl,(%rax)
    2fc9:	90                   	nop
    2fca:	48 83 c4 28          	add    $0x28,%rsp
    2fce:	5b                   	pop    %rbx
    2fcf:	5d                   	pop    %rbp
    2fd0:	c3                   	retq   

0000000000002fd1 <_ZNSt6vectorIhSaIhEE11_S_relocateEPhS2_S2_RS0_>:
    2fd1:	f3 0f 1e fa          	endbr64 
    2fd5:	55                   	push   %rbp
    2fd6:	48 89 e5             	mov    %rsp,%rbp
    2fd9:	48 83 ec 30          	sub    $0x30,%rsp
    2fdd:	48 89 7d e8          	mov    %rdi,-0x18(%rbp)
    2fe1:	48 89 75 e0          	mov    %rsi,-0x20(%rbp)
    2fe5:	48 89 55 d8          	mov    %rdx,-0x28(%rbp)
    2fe9:	48 89 4d d0          	mov    %rcx,-0x30(%rbp)
    2fed:	64 48 8b 04 25 28 00 	mov    %fs:0x28,%rax
    2ff4:	00 00 
    2ff6:	48 89 45 f8          	mov    %rax,-0x8(%rbp)
    2ffa:	31 c0                	xor    %eax,%eax
    2ffc:	48 8b 4d d0          	mov    -0x30(%rbp),%rcx
    3000:	48 8b 55 d8          	mov    -0x28(%rbp),%rdx
    3004:	48 8b 75 e0          	mov    -0x20(%rbp),%rsi
    3008:	48 8b 45 e8          	mov    -0x18(%rbp),%rax
    300c:	48 89 c7             	mov    %rax,%rdi
    300f:	e8 3a 03 00 00       	callq  334e <_ZNSt6vectorIhSaIhEE14_S_do_relocateEPhS2_S2_RS0_St17integral_constantIbLb1EE>
    3014:	48 8b 7d f8          	mov    -0x8(%rbp),%rdi
    3018:	64 48 33 3c 25 28 00 	xor    %fs:0x28,%rdi
    301f:	00 00 
    3021:	74 05                	je     3028 <_ZNSt6vectorIhSaIhEE11_S_relocateEPhS2_S2_RS0_+0x57>
    3023:	e8 18 e2 ff ff       	callq  1240 <__stack_chk_fail@plt>
    3028:	c9                   	leaveq 
    3029:	c3                   	retq   

000000000000302a <_ZNK9__gnu_cxx17__normal_iteratorIPhSt6vectorIhSaIhEEEmiEl>:
    302a:	f3 0f 1e fa          	endbr64 
    302e:	55                   	push   %rbp
    302f:	48 89 e5             	mov    %rsp,%rbp
    3032:	48 83 ec 30          	sub    $0x30,%rsp
    3036:	48 89 7d d8          	mov    %rdi,-0x28(%rbp)
    303a:	48 89 75 d0          	mov    %rsi,-0x30(%rbp)
    303e:	64 48 8b 04 25 28 00 	mov    %fs:0x28,%rax
    3045:	00 00 
    3047:	48 89 45 f8          	mov    %rax,-0x8(%rbp)
    304b:	31 c0                	xor    %eax,%eax
    304d:	48 8b 45 d8          	mov    -0x28(%rbp),%rax
    3051:	48 8b 00             	mov    (%rax),%rax
    3054:	48 8b 55 d0          	mov    -0x30(%rbp),%rdx
    3058:	48 f7 da             	neg    %rdx
    305b:	48 01 d0             	add    %rdx,%rax
    305e:	48 89 45 e8          	mov    %rax,-0x18(%rbp)
    3062:	48 8d 55 e8          	lea    -0x18(%rbp),%rdx
    3066:	48 8d 45 f0          	lea    -0x10(%rbp),%rax
    306a:	48 89 d6             	mov    %rdx,%rsi
    306d:	48 89 c7             	mov    %rax,%rdi
    3070:	e8 d1 f0 ff ff       	callq  2146 <_ZN9__gnu_cxx17__normal_iteratorIPhSt6vectorIhSaIhEEEC1ERKS1_>
    3075:	48 8b 45 f0          	mov    -0x10(%rbp),%rax
    3079:	48 8b 4d f8          	mov    -0x8(%rbp),%rcx
    307d:	64 48 33 0c 25 28 00 	xor    %fs:0x28,%rcx
    3084:	00 00 
    3086:	74 05                	je     308d <_ZNK9__gnu_cxx17__normal_iteratorIPhSt6vectorIhSaIhEEEmiEl+0x63>
    3088:	e8 b3 e1 ff ff       	callq  1240 <__stack_chk_fail@plt>
    308d:	c9                   	leaveq 
    308e:	c3                   	retq   

000000000000308f <_ZSt18make_move_iteratorIPhESt13move_iteratorIT_ES2_>:
    308f:	f3 0f 1e fa          	endbr64 
    3093:	55                   	push   %rbp
    3094:	48 89 e5             	mov    %rsp,%rbp
    3097:	48 83 ec 20          	sub    $0x20,%rsp
    309b:	48 89 7d e8          	mov    %rdi,-0x18(%rbp)
    309f:	64 48 8b 04 25 28 00 	mov    %fs:0x28,%rax
    30a6:	00 00 
    30a8:	48 89 45 f8          	mov    %rax,-0x8(%rbp)
    30ac:	31 c0                	xor    %eax,%eax
    30ae:	48 8b 55 e8          	mov    -0x18(%rbp),%rdx
    30b2:	48 8d 45 f0          	lea    -0x10(%rbp),%rax
    30b6:	48 89 d6             	mov    %rdx,%rsi
    30b9:	48 89 c7             	mov    %rax,%rdi
    30bc:	e8 c3 02 00 00       	callq  3384 <_ZNSt13move_iteratorIPhEC1ES0_>
    30c1:	48 8b 45 f0          	mov    -0x10(%rbp),%rax
    30c5:	48 8b 4d f8          	mov    -0x8(%rbp),%rcx
    30c9:	64 48 33 0c 25 28 00 	xor    %fs:0x28,%rcx
    30d0:	00 00 
    30d2:	74 05                	je     30d9 <_ZSt18make_move_iteratorIPhESt13move_iteratorIT_ES2_+0x4a>
    30d4:	e8 67 e1 ff ff       	callq  1240 <__stack_chk_fail@plt>
    30d9:	c9                   	leaveq 
    30da:	c3                   	retq   

00000000000030db <_ZSt22__uninitialized_copy_aISt13move_iteratorIPhES1_hET0_T_S4_S3_RSaIT1_E>:
    30db:	f3 0f 1e fa          	endbr64 
    30df:	55                   	push   %rbp
    30e0:	48 89 e5             	mov    %rsp,%rbp
    30e3:	48 83 ec 20          	sub    $0x20,%rsp
    30e7:	48 89 7d f8          	mov    %rdi,-0x8(%rbp)
    30eb:	48 89 75 f0          	mov    %rsi,-0x10(%rbp)
    30ef:	48 89 55 e8          	mov    %rdx,-0x18(%rbp)
    30f3:	48 89 4d e0          	mov    %rcx,-0x20(%rbp)
    30f7:	48 8b 55 e8          	mov    -0x18(%rbp),%rdx
    30fb:	48 8b 4d f0          	mov    -0x10(%rbp),%rcx
    30ff:	48 8b 45 f8          	mov    -0x8(%rbp),%rax
    3103:	48 89 ce             	mov    %rcx,%rsi
    3106:	48 89 c7             	mov    %rax,%rdi
    3109:	e8 94 02 00 00       	callq  33a2 <_ZSt18uninitialized_copyISt13move_iteratorIPhES1_ET0_T_S4_S3_>
    310e:	c9                   	leaveq 
    310f:	c3                   	retq   

0000000000003110 <_ZSt12__miter_baseIPhET_S1_>:
    3110:	f3 0f 1e fa          	endbr64 
    3114:	55                   	push   %rbp
    3115:	48 89 e5             	mov    %rsp,%rbp
    3118:	48 89 7d f8          	mov    %rdi,-0x8(%rbp)
    311c:	48 8b 45 f8          	mov    -0x8(%rbp),%rax
    3120:	5d                   	pop    %rbp
    3121:	c3                   	retq   

0000000000003122 <_ZSt23__copy_move_backward_a2ILb1EPhS0_ET1_T0_S2_S1_>:
    3122:	f3 0f 1e fa          	endbr64 
    3126:	55                   	push   %rbp
    3127:	48 89 e5             	mov    %rsp,%rbp
    312a:	41 54                	push   %r12
    312c:	53                   	push   %rbx
    312d:	48 83 ec 20          	sub    $0x20,%rsp
    3131:	48 89 7d e8          	mov    %rdi,-0x18(%rbp)
    3135:	48 89 75 e0          	mov    %rsi,-0x20(%rbp)
    3139:	48 89 55 d8          	mov    %rdx,-0x28(%rbp)
    313d:	48 8b 45 d8          	mov    -0x28(%rbp),%rax
    3141:	48 89 c7             	mov    %rax,%rdi
    3144:	e8 8e 02 00 00       	callq  33d7 <_ZSt12__niter_baseIPhET_S1_>
    3149:	49 89 c4             	mov    %rax,%r12
    314c:	48 8b 45 e0          	mov    -0x20(%rbp),%rax
    3150:	48 89 c7             	mov    %rax,%rdi
    3153:	e8 7f 02 00 00       	callq  33d7 <_ZSt12__niter_baseIPhET_S1_>
    3158:	48 89 c3             	mov    %rax,%rbx
    315b:	48 8b 45 e8          	mov    -0x18(%rbp),%rax
    315f:	48 89 c7             	mov    %rax,%rdi
    3162:	e8 70 02 00 00       	callq  33d7 <_ZSt12__niter_baseIPhET_S1_>
    3167:	4c 89 e2             	mov    %r12,%rdx
    316a:	48 89 de             	mov    %rbx,%rsi
    316d:	48 89 c7             	mov    %rax,%rdi
    3170:	e8 74 02 00 00       	callq  33e9 <_ZSt22__copy_move_backward_aILb1EPhS0_ET1_T0_S2_S1_>
    3175:	48 89 c2             	mov    %rax,%rdx
    3178:	48 8d 45 d8          	lea    -0x28(%rbp),%rax
    317c:	48 89 d6             	mov    %rdx,%rsi
    317f:	48 89 c7             	mov    %rax,%rdi
    3182:	e8 97 02 00 00       	callq  341e <_ZSt12__niter_wrapIPhET_RKS1_S1_>
    3187:	48 83 c4 20          	add    $0x20,%rsp
    318b:	5b                   	pop    %rbx
    318c:	41 5c                	pop    %r12
    318e:	5d                   	pop    %rbp
    318f:	c3                   	retq   

0000000000003190 <_ZSt14__copy_move_a2ILb0EPhN9__gnu_cxx17__normal_iteratorIS0_St6vectorIhSaIhEEEEET1_T0_S8_S7_>:
    3190:	f3 0f 1e fa          	endbr64 
    3194:	55                   	push   %rbp
    3195:	48 89 e5             	mov    %rsp,%rbp
    3198:	41 54                	push   %r12
    319a:	53                   	push   %rbx
    319b:	48 83 ec 20          	sub    $0x20,%rsp
    319f:	48 89 7d e8          	mov    %rdi,-0x18(%rbp)
    31a3:	48 89 75 e0          	mov    %rsi,-0x20(%rbp)
    31a7:	48 89 55 d8          	mov    %rdx,-0x28(%rbp)
    31ab:	48 8b 45 d8          	mov    -0x28(%rbp),%rax
    31af:	48 89 c7             	mov    %rax,%rdi
    31b2:	e8 7d 02 00 00       	callq  3434 <_ZSt12__niter_baseIPhSt6vectorIhSaIhEEET_N9__gnu_cxx17__normal_iteratorIS4_T0_EE>
    31b7:	49 89 c4             	mov    %rax,%r12
    31ba:	48 8b 45 e0          	mov    -0x20(%rbp),%rax
    31be:	48 89 c7             	mov    %rax,%rdi
    31c1:	e8 11 02 00 00       	callq  33d7 <_ZSt12__niter_baseIPhET_S1_>
    31c6:	48 89 c3             	mov    %rax,%rbx
    31c9:	48 8b 45 e8          	mov    -0x18(%rbp),%rax
    31cd:	48 89 c7             	mov    %rax,%rdi
    31d0:	e8 02 02 00 00       	callq  33d7 <_ZSt12__niter_baseIPhET_S1_>
    31d5:	4c 89 e2             	mov    %r12,%rdx
    31d8:	48 89 de             	mov    %rbx,%rsi
    31db:	48 89 c7             	mov    %rax,%rdi
    31de:	e8 72 02 00 00       	callq  3455 <_ZSt13__copy_move_aILb0EPhS0_ET1_T0_S2_S1_>
    31e3:	48 89 c2             	mov    %rax,%rdx
    31e6:	48 8b 45 d8          	mov    -0x28(%rbp),%rax
    31ea:	48 89 d6             	mov    %rdx,%rsi
    31ed:	48 89 c7             	mov    %rax,%rdi
    31f0:	e8 95 02 00 00       	callq  348a <_ZSt12__niter_wrapIN9__gnu_cxx17__normal_iteratorIPhSt6vectorIhSaIhEEEES2_ET_S7_T0_>
    31f5:	48 83 c4 20          	add    $0x20,%rsp
    31f9:	5b                   	pop    %rbx
    31fa:	41 5c                	pop    %r12
    31fc:	5d                   	pop    %rbp
    31fd:	c3                   	retq   

00000000000031fe <_ZSt9__advanceIPhlEvRT_T0_St26random_access_iterator_tag>:
    31fe:	f3 0f 1e fa          	endbr64 
    3202:	55                   	push   %rbp
    3203:	48 89 e5             	mov    %rsp,%rbp
    3206:	48 89 7d f8          	mov    %rdi,-0x8(%rbp)
    320a:	48 89 75 f0          	mov    %rsi,-0x10(%rbp)
    320e:	48 8b 45 f8          	mov    -0x8(%rbp),%rax
    3212:	48 8b 10             	mov    (%rax),%rdx
    3215:	48 8b 45 f0          	mov    -0x10(%rbp),%rax
    3219:	48 01 c2             	add    %rax,%rdx
    321c:	48 8b 45 f8          	mov    -0x8(%rbp),%rax
    3220:	48 89 10             	mov    %rdx,(%rax)
    3223:	90                   	nop
    3224:	5d                   	pop    %rbp
    3225:	c3                   	retq   

0000000000003226 <_ZSt18uninitialized_copyIPhS0_ET0_T_S2_S1_>:
    3226:	f3 0f 1e fa          	endbr64 
    322a:	55                   	push   %rbp
    322b:	48 89 e5             	mov    %rsp,%rbp
    322e:	48 83 ec 30          	sub    $0x30,%rsp
    3232:	48 89 7d e8          	mov    %rdi,-0x18(%rbp)
    3236:	48 89 75 e0          	mov    %rsi,-0x20(%rbp)
    323a:	48 89 55 d8          	mov    %rdx,-0x28(%rbp)
    323e:	c6 45 ff 01          	movb   $0x1,-0x1(%rbp)
    3242:	48 8b 55 d8          	mov    -0x28(%rbp),%rdx
    3246:	48 8b 4d e0          	mov    -0x20(%rbp),%rcx
    324a:	48 8b 45 e8          	mov    -0x18(%rbp),%rax
    324e:	48 89 ce             	mov    %rcx,%rsi
    3251:	48 89 c7             	mov    %rax,%rdi
    3254:	e8 69 02 00 00       	callq  34c2 <_ZNSt20__uninitialized_copyILb1EE13__uninit_copyIPhS2_EET0_T_S4_S3_>
    3259:	c9                   	leaveq 
    325a:	c3                   	retq   
    325b:	90                   	nop

000000000000325c <_ZNKSt6vectorIhSaIhEE8max_sizeEv>:
    325c:	f3 0f 1e fa          	endbr64 
    3260:	55                   	push   %rbp
    3261:	48 89 e5             	mov    %rsp,%rbp
    3264:	48 83 ec 10          	sub    $0x10,%rsp
    3268:	48 89 7d f8          	mov    %rdi,-0x8(%rbp)
    326c:	48 8b 45 f8          	mov    -0x8(%rbp),%rax
    3270:	48 89 c7             	mov    %rax,%rdi
    3273:	e8 e4 02 00 00       	callq  355c <_ZNKSt12_Vector_baseIhSaIhEE19_M_get_Tp_allocatorEv>
    3278:	48 89 c7             	mov    %rax,%rdi
    327b:	e8 73 02 00 00       	callq  34f3 <_ZNSt6vectorIhSaIhEE11_S_max_sizeERKS0_>
    3280:	c9                   	leaveq 
    3281:	c3                   	retq   

0000000000003282 <_ZNKSt6vectorIhSaIhEE4sizeEv>:
    3282:	f3 0f 1e fa          	endbr64 
    3286:	55                   	push   %rbp
    3287:	48 89 e5             	mov    %rsp,%rbp
    328a:	48 89 7d f8          	mov    %rdi,-0x8(%rbp)
    328e:	48 8b 45 f8          	mov    -0x8(%rbp),%rax
    3292:	48 8b 50 08          	mov    0x8(%rax),%rdx
    3296:	48 8b 45 f8          	mov    -0x8(%rbp),%rax
    329a:	48 8b 00             	mov    (%rax),%rax
    329d:	48 29 c2             	sub    %rax,%rdx
    32a0:	48 89 d0             	mov    %rdx,%rax
    32a3:	5d                   	pop    %rbp
    32a4:	c3                   	retq   

00000000000032a5 <_ZSt3maxImERKT_S2_S2_>:
    32a5:	f3 0f 1e fa          	endbr64 
    32a9:	55                   	push   %rbp
    32aa:	48 89 e5             	mov    %rsp,%rbp
    32ad:	48 89 7d f8          	mov    %rdi,-0x8(%rbp)
    32b1:	48 89 75 f0          	mov    %rsi,-0x10(%rbp)
    32b5:	48 8b 45 f8          	mov    -0x8(%rbp),%rax
    32b9:	48 8b 10             	mov    (%rax),%rdx
    32bc:	48 8b 45 f0          	mov    -0x10(%rbp),%rax
    32c0:	48 8b 00             	mov    (%rax),%rax
    32c3:	48 39 c2             	cmp    %rax,%rdx
    32c6:	73 06                	jae    32ce <_ZSt3maxImERKT_S2_S2_+0x29>
    32c8:	48 8b 45 f0          	mov    -0x10(%rbp),%rax
    32cc:	eb 04                	jmp    32d2 <_ZSt3maxImERKT_S2_S2_+0x2d>
    32ce:	48 8b 45 f8          	mov    -0x8(%rbp),%rax
    32d2:	5d                   	pop    %rbp
    32d3:	c3                   	retq   

00000000000032d4 <_ZNSt16allocator_traitsISaIhEE8allocateERS0_m>:
    32d4:	f3 0f 1e fa          	endbr64 
    32d8:	55                   	push   %rbp
    32d9:	48 89 e5             	mov    %rsp,%rbp
    32dc:	48 83 ec 10          	sub    $0x10,%rsp
    32e0:	48 89 7d f8          	mov    %rdi,-0x8(%rbp)
    32e4:	48 89 75 f0          	mov    %rsi,-0x10(%rbp)
    32e8:	48 8b 4d f0          	mov    -0x10(%rbp),%rcx
    32ec:	48 8b 45 f8          	mov    -0x8(%rbp),%rax
    32f0:	ba 00 00 00 00       	mov    $0x0,%edx
    32f5:	48 89 ce             	mov    %rcx,%rsi
    32f8:	48 89 c7             	mov    %rax,%rdi
    32fb:	e8 6e 02 00 00       	callq  356e <_ZN9__gnu_cxx13new_allocatorIhE8allocateEmPKv>
    3300:	c9                   	leaveq 
    3301:	c3                   	retq   

0000000000003302 <_ZSt32__make_move_if_noexcept_iteratorIhSt13move_iteratorIPhEET0_PT_>:
    3302:	f3 0f 1e fa          	endbr64 
    3306:	55                   	push   %rbp
    3307:	48 89 e5             	mov    %rsp,%rbp
    330a:	48 83 ec 20          	sub    $0x20,%rsp
    330e:	48 89 7d e8          	mov    %rdi,-0x18(%rbp)
    3312:	64 48 8b 04 25 28 00 	mov    %fs:0x28,%rax
    3319:	00 00 
    331b:	48 89 45 f8          	mov    %rax,-0x8(%rbp)
    331f:	31 c0                	xor    %eax,%eax
    3321:	48 8b 55 e8          	mov    -0x18(%rbp),%rdx
    3325:	48 8d 45 f0          	lea    -0x10(%rbp),%rax
    3329:	48 89 d6             	mov    %rdx,%rsi
    332c:	48 89 c7             	mov    %rax,%rdi
    332f:	e8 50 00 00 00       	callq  3384 <_ZNSt13move_iteratorIPhEC1ES0_>
    3334:	48 8b 45 f0          	mov    -0x10(%rbp),%rax
    3338:	48 8b 4d f8          	mov    -0x8(%rbp),%rcx
    333c:	64 48 33 0c 25 28 00 	xor    %fs:0x28,%rcx
    3343:	00 00 
    3345:	74 05                	je     334c <_ZSt32__make_move_if_noexcept_iteratorIhSt13move_iteratorIPhEET0_PT_+0x4a>
    3347:	e8 f4 de ff ff       	callq  1240 <__stack_chk_fail@plt>
    334c:	c9                   	leaveq 
    334d:	c3                   	retq   

000000000000334e <_ZNSt6vectorIhSaIhEE14_S_do_relocateEPhS2_S2_RS0_St17integral_constantIbLb1EE>:
    334e:	f3 0f 1e fa          	endbr64 
    3352:	55                   	push   %rbp
    3353:	48 89 e5             	mov    %rsp,%rbp
    3356:	48 83 ec 20          	sub    $0x20,%rsp
    335a:	48 89 7d f8          	mov    %rdi,-0x8(%rbp)
    335e:	48 89 75 f0          	mov    %rsi,-0x10(%rbp)
    3362:	48 89 55 e8          	mov    %rdx,-0x18(%rbp)
    3366:	48 89 4d e0          	mov    %rcx,-0x20(%rbp)
    336a:	48 8b 4d e0          	mov    -0x20(%rbp),%rcx
    336e:	48 8b 55 e8          	mov    -0x18(%rbp),%rdx
    3372:	48 8b 75 f0          	mov    -0x10(%rbp),%rsi
    3376:	48 8b 45 f8          	mov    -0x8(%rbp),%rax
    337a:	48 89 c7             	mov    %rax,%rdi
    337d:	e8 2f 02 00 00       	callq  35b1 <_ZSt12__relocate_aIPhS0_SaIhEET0_T_S3_S2_RT1_>
    3382:	c9                   	leaveq 
    3383:	c3                   	retq   

0000000000003384 <_ZNSt13move_iteratorIPhEC1ES0_>:
    3384:	f3 0f 1e fa          	endbr64 
    3388:	55                   	push   %rbp
    3389:	48 89 e5             	mov    %rsp,%rbp
    338c:	48 89 7d f8          	mov    %rdi,-0x8(%rbp)
    3390:	48 89 75 f0          	mov    %rsi,-0x10(%rbp)
    3394:	48 8b 45 f8          	mov    -0x8(%rbp),%rax
    3398:	48 8b 55 f0          	mov    -0x10(%rbp),%rdx
    339c:	48 89 10             	mov    %rdx,(%rax)
    339f:	90                   	nop
    33a0:	5d                   	pop    %rbp
    33a1:	c3                   	retq   

00000000000033a2 <_ZSt18uninitialized_copyISt13move_iteratorIPhES1_ET0_T_S4_S3_>:
    33a2:	f3 0f 1e fa          	endbr64 
    33a6:	55                   	push   %rbp
    33a7:	48 89 e5             	mov    %rsp,%rbp
    33aa:	48 83 ec 30          	sub    $0x30,%rsp
    33ae:	48 89 7d e8          	mov    %rdi,-0x18(%rbp)
    33b2:	48 89 75 e0          	mov    %rsi,-0x20(%rbp)
    33b6:	48 89 55 d8          	mov    %rdx,-0x28(%rbp)
    33ba:	c6 45 ff 01          	movb   $0x1,-0x1(%rbp)
    33be:	48 8b 55 d8          	mov    -0x28(%rbp),%rdx
    33c2:	48 8b 4d e0          	mov    -0x20(%rbp),%rcx
    33c6:	48 8b 45 e8          	mov    -0x18(%rbp),%rax
    33ca:	48 89 ce             	mov    %rcx,%rsi
    33cd:	48 89 c7             	mov    %rax,%rdi
    33d0:	e8 43 02 00 00       	callq  3618 <_ZNSt20__uninitialized_copyILb1EE13__uninit_copyISt13move_iteratorIPhES3_EET0_T_S6_S5_>
    33d5:	c9                   	leaveq 
    33d6:	c3                   	retq   

00000000000033d7 <_ZSt12__niter_baseIPhET_S1_>:
    33d7:	f3 0f 1e fa          	endbr64 
    33db:	55                   	push   %rbp
    33dc:	48 89 e5             	mov    %rsp,%rbp
    33df:	48 89 7d f8          	mov    %rdi,-0x8(%rbp)
    33e3:	48 8b 45 f8          	mov    -0x8(%rbp),%rax
    33e7:	5d                   	pop    %rbp
    33e8:	c3                   	retq   

00000000000033e9 <_ZSt22__copy_move_backward_aILb1EPhS0_ET1_T0_S2_S1_>:
    33e9:	f3 0f 1e fa          	endbr64 
    33ed:	55                   	push   %rbp
    33ee:	48 89 e5             	mov    %rsp,%rbp
    33f1:	48 83 ec 30          	sub    $0x30,%rsp
    33f5:	48 89 7d e8          	mov    %rdi,-0x18(%rbp)
    33f9:	48 89 75 e0          	mov    %rsi,-0x20(%rbp)
    33fd:	48 89 55 d8          	mov    %rdx,-0x28(%rbp)
    3401:	c6 45 ff 01          	movb   $0x1,-0x1(%rbp)
    3405:	48 8b 55 d8          	mov    -0x28(%rbp),%rdx
    3409:	48 8b 4d e0          	mov    -0x20(%rbp),%rcx
    340d:	48 8b 45 e8          	mov    -0x18(%rbp),%rax
    3411:	48 89 ce             	mov    %rcx,%rsi
    3414:	48 89 c7             	mov    %rax,%rdi
    3417:	e8 2d 02 00 00       	callq  3649 <_ZNSt20__copy_move_backwardILb1ELb1ESt26random_access_iterator_tagE13__copy_move_bIhEEPT_PKS3_S6_S4_>
    341c:	c9                   	leaveq 
    341d:	c3                   	retq   

000000000000341e <_ZSt12__niter_wrapIPhET_RKS1_S1_>:
    341e:	f3 0f 1e fa          	endbr64 
    3422:	55                   	push   %rbp
    3423:	48 89 e5             	mov    %rsp,%rbp
    3426:	48 89 7d f8          	mov    %rdi,-0x8(%rbp)
    342a:	48 89 75 f0          	mov    %rsi,-0x10(%rbp)
    342e:	48 8b 45 f0          	mov    -0x10(%rbp),%rax
    3432:	5d                   	pop    %rbp
    3433:	c3                   	retq   

0000000000003434 <_ZSt12__niter_baseIPhSt6vectorIhSaIhEEET_N9__gnu_cxx17__normal_iteratorIS4_T0_EE>:
    3434:	f3 0f 1e fa          	endbr64 
    3438:	55                   	push   %rbp
    3439:	48 89 e5             	mov    %rsp,%rbp
    343c:	48 83 ec 10          	sub    $0x10,%rsp
    3440:	48 89 7d f8          	mov    %rdi,-0x8(%rbp)
    3444:	48 8d 45 f8          	lea    -0x8(%rbp),%rax
    3448:	48 89 c7             	mov    %rax,%rdi
    344b:	e8 18 ed ff ff       	callq  2168 <_ZNK9__gnu_cxx17__normal_iteratorIPhSt6vectorIhSaIhEEE4baseEv>
    3450:	48 8b 00             	mov    (%rax),%rax
    3453:	c9                   	leaveq 
    3454:	c3                   	retq   

0000000000003455 <_ZSt13__copy_move_aILb0EPhS0_ET1_T0_S2_S1_>:
    3455:	f3 0f 1e fa          	endbr64 
    3459:	55                   	push   %rbp
    345a:	48 89 e5             	mov    %rsp,%rbp
    345d:	48 83 ec 30          	sub    $0x30,%rsp
    3461:	48 89 7d e8          	mov    %rdi,-0x18(%rbp)
    3465:	48 89 75 e0          	mov    %rsi,-0x20(%rbp)
    3469:	48 89 55 d8          	mov    %rdx,-0x28(%rbp)
    346d:	c6 45 ff 01          	movb   $0x1,-0x1(%rbp)
    3471:	48 8b 55 d8          	mov    -0x28(%rbp),%rdx
    3475:	48 8b 4d e0          	mov    -0x20(%rbp),%rcx
    3479:	48 8b 45 e8          	mov    -0x18(%rbp),%rax
    347d:	48 89 ce             	mov    %rcx,%rsi
    3480:	48 89 c7             	mov    %rax,%rdi
    3483:	e8 23 02 00 00       	callq  36ab <_ZNSt11__copy_moveILb0ELb1ESt26random_access_iterator_tagE8__copy_mIhEEPT_PKS3_S6_S4_>
    3488:	c9                   	leaveq 
    3489:	c3                   	retq   

000000000000348a <_ZSt12__niter_wrapIN9__gnu_cxx17__normal_iteratorIPhSt6vectorIhSaIhEEEES2_ET_S7_T0_>:
    348a:	f3 0f 1e fa          	endbr64 
    348e:	55                   	push   %rbp
    348f:	48 89 e5             	mov    %rsp,%rbp
    3492:	48 83 ec 10          	sub    $0x10,%rsp
    3496:	48 89 7d f8          	mov    %rdi,-0x8(%rbp)
    349a:	48 89 75 f0          	mov    %rsi,-0x10(%rbp)
    349e:	48 8b 45 f8          	mov    -0x8(%rbp),%rax
    34a2:	48 89 c7             	mov    %rax,%rdi
    34a5:	e8 8a ff ff ff       	callq  3434 <_ZSt12__niter_baseIPhSt6vectorIhSaIhEEET_N9__gnu_cxx17__normal_iteratorIS4_T0_EE>
    34aa:	48 8b 55 f0          	mov    -0x10(%rbp),%rdx
    34ae:	48 29 c2             	sub    %rax,%rdx
    34b1:	48 8d 45 f8          	lea    -0x8(%rbp),%rax
    34b5:	48 89 d6             	mov    %rdx,%rsi
    34b8:	48 89 c7             	mov    %rax,%rdi
    34bb:	e8 52 ed ff ff       	callq  2212 <_ZNK9__gnu_cxx17__normal_iteratorIPhSt6vectorIhSaIhEEEplEl>
    34c0:	c9                   	leaveq 
    34c1:	c3                   	retq   

00000000000034c2 <_ZNSt20__uninitialized_copyILb1EE13__uninit_copyIPhS2_EET0_T_S4_S3_>:
    34c2:	f3 0f 1e fa          	endbr64 
    34c6:	55                   	push   %rbp
    34c7:	48 89 e5             	mov    %rsp,%rbp
    34ca:	48 83 ec 20          	sub    $0x20,%rsp
    34ce:	48 89 7d f8          	mov    %rdi,-0x8(%rbp)
    34d2:	48 89 75 f0          	mov    %rsi,-0x10(%rbp)
    34d6:	48 89 55 e8          	mov    %rdx,-0x18(%rbp)
    34da:	48 8b 55 e8          	mov    -0x18(%rbp),%rdx
    34de:	48 8b 4d f0          	mov    -0x10(%rbp),%rcx
    34e2:	48 8b 45 f8          	mov    -0x8(%rbp),%rax
    34e6:	48 89 ce             	mov    %rcx,%rsi
    34e9:	48 89 c7             	mov    %rax,%rdi
    34ec:	e8 09 02 00 00       	callq  36fa <_ZSt4copyIPhS0_ET0_T_S2_S1_>
    34f1:	c9                   	leaveq 
    34f2:	c3                   	retq   

00000000000034f3 <_ZNSt6vectorIhSaIhEE11_S_max_sizeERKS0_>:
    34f3:	f3 0f 1e fa          	endbr64 
    34f7:	55                   	push   %rbp
    34f8:	48 89 e5             	mov    %rsp,%rbp
    34fb:	48 83 ec 30          	sub    $0x30,%rsp
    34ff:	48 89 7d d8          	mov    %rdi,-0x28(%rbp)
    3503:	64 48 8b 04 25 28 00 	mov    %fs:0x28,%rax
    350a:	00 00 
    350c:	48 89 45 f8          	mov    %rax,-0x8(%rbp)
    3510:	31 c0                	xor    %eax,%eax
    3512:	48 b8 ff ff ff ff ff 	movabs $0x7fffffffffffffff,%rax
    3519:	ff ff 7f 
    351c:	48 89 45 e8          	mov    %rax,-0x18(%rbp)
    3520:	48 8b 45 d8          	mov    -0x28(%rbp),%rax
    3524:	48 89 c7             	mov    %rax,%rdi
    3527:	e8 1e 02 00 00       	callq  374a <_ZNSt16allocator_traitsISaIhEE8max_sizeERKS0_>
    352c:	48 89 45 f0          	mov    %rax,-0x10(%rbp)
    3530:	48 8d 55 f0          	lea    -0x10(%rbp),%rdx
    3534:	48 8d 45 e8          	lea    -0x18(%rbp),%rax
    3538:	48 89 d6             	mov    %rdx,%rsi
    353b:	48 89 c7             	mov    %rax,%rdi
    353e:	e8 25 02 00 00       	callq  3768 <_ZSt3minImERKT_S2_S2_>
    3543:	48 8b 00             	mov    (%rax),%rax
    3546:	48 8b 4d f8          	mov    -0x8(%rbp),%rcx
    354a:	64 48 33 0c 25 28 00 	xor    %fs:0x28,%rcx
    3551:	00 00 
    3553:	74 05                	je     355a <_ZNSt6vectorIhSaIhEE11_S_max_sizeERKS0_+0x67>
    3555:	e8 e6 dc ff ff       	callq  1240 <__stack_chk_fail@plt>
    355a:	c9                   	leaveq 
    355b:	c3                   	retq   

000000000000355c <_ZNKSt12_Vector_baseIhSaIhEE19_M_get_Tp_allocatorEv>:
    355c:	f3 0f 1e fa          	endbr64 
    3560:	55                   	push   %rbp
    3561:	48 89 e5             	mov    %rsp,%rbp
    3564:	48 89 7d f8          	mov    %rdi,-0x8(%rbp)
    3568:	48 8b 45 f8          	mov    -0x8(%rbp),%rax
    356c:	5d                   	pop    %rbp
    356d:	c3                   	retq   

000000000000356e <_ZN9__gnu_cxx13new_allocatorIhE8allocateEmPKv>:
    356e:	f3 0f 1e fa          	endbr64 
    3572:	55                   	push   %rbp
    3573:	48 89 e5             	mov    %rsp,%rbp
    3576:	48 83 ec 20          	sub    $0x20,%rsp
    357a:	48 89 7d f8          	mov    %rdi,-0x8(%rbp)
    357e:	48 89 75 f0          	mov    %rsi,-0x10(%rbp)
    3582:	48 89 55 e8          	mov    %rdx,-0x18(%rbp)
    3586:	48 8b 45 f8          	mov    -0x8(%rbp),%rax
    358a:	48 89 c7             	mov    %rax,%rdi
    358d:	e8 06 02 00 00       	callq  3798 <_ZNK9__gnu_cxx13new_allocatorIhE8max_sizeEv>
    3592:	48 39 45 f0          	cmp    %rax,-0x10(%rbp)
    3596:	0f 97 c0             	seta   %al
    3599:	84 c0                	test   %al,%al
    359b:	74 05                	je     35a2 <_ZN9__gnu_cxx13new_allocatorIhE8allocateEmPKv+0x34>
    359d:	e8 fe db ff ff       	callq  11a0 <_ZSt17__throw_bad_allocv@plt>
    35a2:	48 8b 45 f0          	mov    -0x10(%rbp),%rax
    35a6:	48 89 c7             	mov    %rax,%rdi
    35a9:	e8 72 dc ff ff       	callq  1220 <_Znwm@plt>
    35ae:	90                   	nop
    35af:	c9                   	leaveq 
    35b0:	c3                   	retq   

00000000000035b1 <_ZSt12__relocate_aIPhS0_SaIhEET0_T_S3_S2_RT1_>:
    35b1:	f3 0f 1e fa          	endbr64 
    35b5:	55                   	push   %rbp
    35b6:	48 89 e5             	mov    %rsp,%rbp
    35b9:	41 54                	push   %r12
    35bb:	53                   	push   %rbx
    35bc:	48 83 ec 20          	sub    $0x20,%rsp
    35c0:	48 89 7d e8          	mov    %rdi,-0x18(%rbp)
    35c4:	48 89 75 e0          	mov    %rsi,-0x20(%rbp)
    35c8:	48 89 55 d8          	mov    %rdx,-0x28(%rbp)
    35cc:	48 89 4d d0          	mov    %rcx,-0x30(%rbp)
    35d0:	48 8b 45 d8          	mov    -0x28(%rbp),%rax
    35d4:	48 89 c7             	mov    %rax,%rdi
    35d7:	e8 fb fd ff ff       	callq  33d7 <_ZSt12__niter_baseIPhET_S1_>
    35dc:	49 89 c4             	mov    %rax,%r12
    35df:	48 8b 45 e0          	mov    -0x20(%rbp),%rax
    35e3:	48 89 c7             	mov    %rax,%rdi
    35e6:	e8 ec fd ff ff       	callq  33d7 <_ZSt12__niter_baseIPhET_S1_>
    35eb:	48 89 c3             	mov    %rax,%rbx
    35ee:	48 8b 45 e8          	mov    -0x18(%rbp),%rax
    35f2:	48 89 c7             	mov    %rax,%rdi
    35f5:	e8 dd fd ff ff       	callq  33d7 <_ZSt12__niter_baseIPhET_S1_>
    35fa:	48 89 c7             	mov    %rax,%rdi
    35fd:	48 8b 45 d0          	mov    -0x30(%rbp),%rax
    3601:	48 89 c1             	mov    %rax,%rcx
    3604:	4c 89 e2             	mov    %r12,%rdx
    3607:	48 89 de             	mov    %rbx,%rsi
    360a:	e8 a1 01 00 00       	callq  37b0 <_ZSt14__relocate_a_1IhhENSt9enable_ifIXsrSt24__is_bitwise_relocatableIT_vE5valueEPS2_E4typeES4_S4_S4_RSaIT0_E>
    360f:	48 83 c4 20          	add    $0x20,%rsp
    3613:	5b                   	pop    %rbx
    3614:	41 5c                	pop    %r12
    3616:	5d                   	pop    %rbp
    3617:	c3                   	retq   

0000000000003618 <_ZNSt20__uninitialized_copyILb1EE13__uninit_copyISt13move_iteratorIPhES3_EET0_T_S6_S5_>:
    3618:	f3 0f 1e fa          	endbr64 
    361c:	55                   	push   %rbp
    361d:	48 89 e5             	mov    %rsp,%rbp
    3620:	48 83 ec 20          	sub    $0x20,%rsp
    3624:	48 89 7d f8          	mov    %rdi,-0x8(%rbp)
    3628:	48 89 75 f0          	mov    %rsi,-0x10(%rbp)
    362c:	48 89 55 e8          	mov    %rdx,-0x18(%rbp)
    3630:	48 8b 55 e8          	mov    -0x18(%rbp),%rdx
    3634:	48 8b 4d f0          	mov    -0x10(%rbp),%rcx
    3638:	48 8b 45 f8          	mov    -0x8(%rbp),%rax
    363c:	48 89 ce             	mov    %rcx,%rsi
    363f:	48 89 c7             	mov    %rax,%rdi
    3642:	e8 bc 01 00 00       	callq  3803 <_ZSt4copyISt13move_iteratorIPhES1_ET0_T_S4_S3_>
    3647:	c9                   	leaveq 
    3648:	c3                   	retq   

0000000000003649 <_ZNSt20__copy_move_backwardILb1ELb1ESt26random_access_iterator_tagE13__copy_move_bIhEEPT_PKS3_S6_S4_>:
    3649:	f3 0f 1e fa          	endbr64 
    364d:	55                   	push   %rbp
    364e:	48 89 e5             	mov    %rsp,%rbp
    3651:	48 83 ec 30          	sub    $0x30,%rsp
    3655:	48 89 7d e8          	mov    %rdi,-0x18(%rbp)
    3659:	48 89 75 e0          	mov    %rsi,-0x20(%rbp)
    365d:	48 89 55 d8          	mov    %rdx,-0x28(%rbp)
    3661:	48 8b 45 e0          	mov    -0x20(%rbp),%rax
    3665:	48 2b 45 e8          	sub    -0x18(%rbp),%rax
    3669:	48 89 45 f8          	mov    %rax,-0x8(%rbp)
    366d:	48 83 7d f8 00       	cmpq   $0x0,-0x8(%rbp)
    3672:	74 24                	je     3698 <_ZNSt20__copy_move_backwardILb1ELb1ESt26random_access_iterator_tagE13__copy_move_bIhEEPT_PKS3_S6_S4_+0x4f>
    3674:	48 8b 55 f8          	mov    -0x8(%rbp),%rdx
    3678:	48 8b 45 f8          	mov    -0x8(%rbp),%rax
    367c:	48 f7 d8             	neg    %rax
    367f:	48 89 c1             	mov    %rax,%rcx
    3682:	48 8b 45 d8          	mov    -0x28(%rbp),%rax
    3686:	48 01 c1             	add    %rax,%rcx
    3689:	48 8b 45 e8          	mov    -0x18(%rbp),%rax
    368d:	48 89 c6             	mov    %rax,%rsi
    3690:	48 89 cf             	mov    %rcx,%rdi
    3693:	e8 f8 db ff ff       	callq  1290 <memmove@plt>
    3698:	48 8b 45 f8          	mov    -0x8(%rbp),%rax
    369c:	48 f7 d8             	neg    %rax
    369f:	48 89 c2             	mov    %rax,%rdx
    36a2:	48 8b 45 d8          	mov    -0x28(%rbp),%rax
    36a6:	48 01 d0             	add    %rdx,%rax
    36a9:	c9                   	leaveq 
    36aa:	c3                   	retq   

00000000000036ab <_ZNSt11__copy_moveILb0ELb1ESt26random_access_iterator_tagE8__copy_mIhEEPT_PKS3_S6_S4_>:
    36ab:	f3 0f 1e fa          	endbr64 
    36af:	55                   	push   %rbp
    36b0:	48 89 e5             	mov    %rsp,%rbp
    36b3:	48 83 ec 30          	sub    $0x30,%rsp
    36b7:	48 89 7d e8          	mov    %rdi,-0x18(%rbp)
    36bb:	48 89 75 e0          	mov    %rsi,-0x20(%rbp)
    36bf:	48 89 55 d8          	mov    %rdx,-0x28(%rbp)
    36c3:	48 8b 45 e0          	mov    -0x20(%rbp),%rax
    36c7:	48 2b 45 e8          	sub    -0x18(%rbp),%rax
    36cb:	48 89 45 f8          	mov    %rax,-0x8(%rbp)
    36cf:	48 83 7d f8 00       	cmpq   $0x0,-0x8(%rbp)
    36d4:	74 17                	je     36ed <_ZNSt11__copy_moveILb0ELb1ESt26random_access_iterator_tagE8__copy_mIhEEPT_PKS3_S6_S4_+0x42>
    36d6:	48 8b 55 f8          	mov    -0x8(%rbp),%rdx
    36da:	48 8b 4d e8          	mov    -0x18(%rbp),%rcx
    36de:	48 8b 45 d8          	mov    -0x28(%rbp),%rax
    36e2:	48 89 ce             	mov    %rcx,%rsi
    36e5:	48 89 c7             	mov    %rax,%rdi
    36e8:	e8 a3 db ff ff       	callq  1290 <memmove@plt>
    36ed:	48 8b 55 f8          	mov    -0x8(%rbp),%rdx
    36f1:	48 8b 45 d8          	mov    -0x28(%rbp),%rax
    36f5:	48 01 d0             	add    %rdx,%rax
    36f8:	c9                   	leaveq 
    36f9:	c3                   	retq   

00000000000036fa <_ZSt4copyIPhS0_ET0_T_S2_S1_>:
    36fa:	f3 0f 1e fa          	endbr64 
    36fe:	55                   	push   %rbp
    36ff:	48 89 e5             	mov    %rsp,%rbp
    3702:	53                   	push   %rbx
    3703:	48 83 ec 28          	sub    $0x28,%rsp
    3707:	48 89 7d e8          	mov    %rdi,-0x18(%rbp)
    370b:	48 89 75 e0          	mov    %rsi,-0x20(%rbp)
    370f:	48 89 55 d8          	mov    %rdx,-0x28(%rbp)
    3713:	48 8b 45 e0          	mov    -0x20(%rbp),%rax
    3717:	48 89 c7             	mov    %rax,%rdi
    371a:	e8 f1 f9 ff ff       	callq  3110 <_ZSt12__miter_baseIPhET_S1_>
    371f:	48 89 c3             	mov    %rax,%rbx
    3722:	48 8b 45 e8          	mov    -0x18(%rbp),%rax
    3726:	48 89 c7             	mov    %rax,%rdi
    3729:	e8 e2 f9 ff ff       	callq  3110 <_ZSt12__miter_baseIPhET_S1_>
    372e:	48 89 c1             	mov    %rax,%rcx
    3731:	48 8b 45 d8          	mov    -0x28(%rbp),%rax
    3735:	48 89 c2             	mov    %rax,%rdx
    3738:	48 89 de             	mov    %rbx,%rsi
    373b:	48 89 cf             	mov    %rcx,%rdi
    373e:	e8 10 01 00 00       	callq  3853 <_ZSt14__copy_move_a2ILb0EPhS0_ET1_T0_S2_S1_>
    3743:	48 83 c4 28          	add    $0x28,%rsp
    3747:	5b                   	pop    %rbx
    3748:	5d                   	pop    %rbp
    3749:	c3                   	retq   

000000000000374a <_ZNSt16allocator_traitsISaIhEE8max_sizeERKS0_>:
    374a:	f3 0f 1e fa          	endbr64 
    374e:	55                   	push   %rbp
    374f:	48 89 e5             	mov    %rsp,%rbp
    3752:	48 83 ec 10          	sub    $0x10,%rsp
    3756:	48 89 7d f8          	mov    %rdi,-0x8(%rbp)
    375a:	48 8b 45 f8          	mov    -0x8(%rbp),%rax
    375e:	48 89 c7             	mov    %rax,%rdi
    3761:	e8 32 00 00 00       	callq  3798 <_ZNK9__gnu_cxx13new_allocatorIhE8max_sizeEv>
    3766:	c9                   	leaveq 
    3767:	c3                   	retq   

0000000000003768 <_ZSt3minImERKT_S2_S2_>:
    3768:	f3 0f 1e fa          	endbr64 
    376c:	55                   	push   %rbp
    376d:	48 89 e5             	mov    %rsp,%rbp
    3770:	48 89 7d f8          	mov    %rdi,-0x8(%rbp)
    3774:	48 89 75 f0          	mov    %rsi,-0x10(%rbp)
    3778:	48 8b 45 f0          	mov    -0x10(%rbp),%rax
    377c:	48 8b 10             	mov    (%rax),%rdx
    377f:	48 8b 45 f8          	mov    -0x8(%rbp),%rax
    3783:	48 8b 00             	mov    (%rax),%rax
    3786:	48 39 c2             	cmp    %rax,%rdx
    3789:	73 06                	jae    3791 <_ZSt3minImERKT_S2_S2_+0x29>
    378b:	48 8b 45 f0          	mov    -0x10(%rbp),%rax
    378f:	eb 04                	jmp    3795 <_ZSt3minImERKT_S2_S2_+0x2d>
    3791:	48 8b 45 f8          	mov    -0x8(%rbp),%rax
    3795:	5d                   	pop    %rbp
    3796:	c3                   	retq   
    3797:	90                   	nop

0000000000003798 <_ZNK9__gnu_cxx13new_allocatorIhE8max_sizeEv>:
    3798:	f3 0f 1e fa          	endbr64 
    379c:	55                   	push   %rbp
    379d:	48 89 e5             	mov    %rsp,%rbp
    37a0:	48 89 7d f8          	mov    %rdi,-0x8(%rbp)
    37a4:	48 b8 ff ff ff ff ff 	movabs $0x7fffffffffffffff,%rax
    37ab:	ff ff 7f 
    37ae:	5d                   	pop    %rbp
    37af:	c3                   	retq   

00000000000037b0 <_ZSt14__relocate_a_1IhhENSt9enable_ifIXsrSt24__is_bitwise_relocatableIT_vE5valueEPS2_E4typeES4_S4_S4_RSaIT0_E>:
    37b0:	f3 0f 1e fa          	endbr64 
    37b4:	55                   	push   %rbp
    37b5:	48 89 e5             	mov    %rsp,%rbp
    37b8:	48 83 ec 30          	sub    $0x30,%rsp
    37bc:	48 89 7d e8          	mov    %rdi,-0x18(%rbp)
    37c0:	48 89 75 e0          	mov    %rsi,-0x20(%rbp)
    37c4:	48 89 55 d8          	mov    %rdx,-0x28(%rbp)
    37c8:	48 89 4d d0          	mov    %rcx,-0x30(%rbp)
    37cc:	48 8b 45 e0          	mov    -0x20(%rbp),%rax
    37d0:	48 2b 45 e8          	sub    -0x18(%rbp),%rax
    37d4:	48 89 45 f8          	mov    %rax,-0x8(%rbp)
    37d8:	48 83 7d f8 00       	cmpq   $0x0,-0x8(%rbp)
    37dd:	7e 17                	jle    37f6 <_ZSt14__relocate_a_1IhhENSt9enable_ifIXsrSt24__is_bitwise_relocatableIT_vE5valueEPS2_E4typeES4_S4_S4_RSaIT0_E+0x46>
    37df:	48 8b 55 f8          	mov    -0x8(%rbp),%rdx
    37e3:	48 8b 4d e8          	mov    -0x18(%rbp),%rcx
    37e7:	48 8b 45 d8          	mov    -0x28(%rbp),%rax
    37eb:	48 89 ce             	mov    %rcx,%rsi
    37ee:	48 89 c7             	mov    %rax,%rdi
    37f1:	e8 9a da ff ff       	callq  1290 <memmove@plt>
    37f6:	48 8b 55 f8          	mov    -0x8(%rbp),%rdx
    37fa:	48 8b 45 d8          	mov    -0x28(%rbp),%rax
    37fe:	48 01 d0             	add    %rdx,%rax
    3801:	c9                   	leaveq 
    3802:	c3                   	retq   

0000000000003803 <_ZSt4copyISt13move_iteratorIPhES1_ET0_T_S4_S3_>:
    3803:	f3 0f 1e fa          	endbr64 
    3807:	55                   	push   %rbp
    3808:	48 89 e5             	mov    %rsp,%rbp
    380b:	53                   	push   %rbx
    380c:	48 83 ec 28          	sub    $0x28,%rsp
    3810:	48 89 7d e8          	mov    %rdi,-0x18(%rbp)
    3814:	48 89 75 e0          	mov    %rsi,-0x20(%rbp)
    3818:	48 89 55 d8          	mov    %rdx,-0x28(%rbp)
    381c:	48 8b 45 e0          	mov    -0x20(%rbp),%rax
    3820:	48 89 c7             	mov    %rax,%rdi
    3823:	e8 99 00 00 00       	callq  38c1 <_ZSt12__miter_baseIPhEDTcl12__miter_basecldtfp_4baseEEESt13move_iteratorIT_E>
    3828:	48 89 c3             	mov    %rax,%rbx
    382b:	48 8b 45 e8          	mov    -0x18(%rbp),%rax
    382f:	48 89 c7             	mov    %rax,%rdi
    3832:	e8 8a 00 00 00       	callq  38c1 <_ZSt12__miter_baseIPhEDTcl12__miter_basecldtfp_4baseEEESt13move_iteratorIT_E>
    3837:	48 89 c1             	mov    %rax,%rcx
    383a:	48 8b 45 d8          	mov    -0x28(%rbp),%rax
    383e:	48 89 c2             	mov    %rax,%rdx
    3841:	48 89 de             	mov    %rbx,%rsi
    3844:	48 89 cf             	mov    %rcx,%rdi
    3847:	e8 9b 00 00 00       	callq  38e7 <_ZSt14__copy_move_a2ILb1EPhS0_ET1_T0_S2_S1_>
    384c:	48 83 c4 28          	add    $0x28,%rsp
    3850:	5b                   	pop    %rbx
    3851:	5d                   	pop    %rbp
    3852:	c3                   	retq   

0000000000003853 <_ZSt14__copy_move_a2ILb0EPhS0_ET1_T0_S2_S1_>:
    3853:	f3 0f 1e fa          	endbr64 
    3857:	55                   	push   %rbp
    3858:	48 89 e5             	mov    %rsp,%rbp
    385b:	41 54                	push   %r12
    385d:	53                   	push   %rbx
    385e:	48 83 ec 20          	sub    $0x20,%rsp
    3862:	48 89 7d e8          	mov    %rdi,-0x18(%rbp)
    3866:	48 89 75 e0          	mov    %rsi,-0x20(%rbp)
    386a:	48 89 55 d8          	mov    %rdx,-0x28(%rbp)
    386e:	48 8b 45 d8          	mov    -0x28(%rbp),%rax
    3872:	48 89 c7             	mov    %rax,%rdi
    3875:	e8 5d fb ff ff       	callq  33d7 <_ZSt12__niter_baseIPhET_S1_>
    387a:	49 89 c4             	mov    %rax,%r12
    387d:	48 8b 45 e0          	mov    -0x20(%rbp),%rax
    3881:	48 89 c7             	mov    %rax,%rdi
    3884:	e8 4e fb ff ff       	callq  33d7 <_ZSt12__niter_baseIPhET_S1_>
    3889:	48 89 c3             	mov    %rax,%rbx
    388c:	48 8b 45 e8          	mov    -0x18(%rbp),%rax
    3890:	48 89 c7             	mov    %rax,%rdi
    3893:	e8 3f fb ff ff       	callq  33d7 <_ZSt12__niter_baseIPhET_S1_>
    3898:	4c 89 e2             	mov    %r12,%rdx
    389b:	48 89 de             	mov    %rbx,%rsi
    389e:	48 89 c7             	mov    %rax,%rdi
    38a1:	e8 af fb ff ff       	callq  3455 <_ZSt13__copy_move_aILb0EPhS0_ET1_T0_S2_S1_>
    38a6:	48 89 c2             	mov    %rax,%rdx
    38a9:	48 8d 45 d8          	lea    -0x28(%rbp),%rax
    38ad:	48 89 d6             	mov    %rdx,%rsi
    38b0:	48 89 c7             	mov    %rax,%rdi
    38b3:	e8 66 fb ff ff       	callq  341e <_ZSt12__niter_wrapIPhET_RKS1_S1_>
    38b8:	48 83 c4 20          	add    $0x20,%rsp
    38bc:	5b                   	pop    %rbx
    38bd:	41 5c                	pop    %r12
    38bf:	5d                   	pop    %rbp
    38c0:	c3                   	retq   

00000000000038c1 <_ZSt12__miter_baseIPhEDTcl12__miter_basecldtfp_4baseEEESt13move_iteratorIT_E>:
    38c1:	f3 0f 1e fa          	endbr64 
    38c5:	55                   	push   %rbp
    38c6:	48 89 e5             	mov    %rsp,%rbp
    38c9:	48 83 ec 10          	sub    $0x10,%rsp
    38cd:	48 89 7d f8          	mov    %rdi,-0x8(%rbp)
    38d1:	48 8d 45 f8          	lea    -0x8(%rbp),%rax
    38d5:	48 89 c7             	mov    %rax,%rdi
    38d8:	e8 79 00 00 00       	callq  3956 <_ZNKSt13move_iteratorIPhE4baseEv>
    38dd:	48 89 c7             	mov    %rax,%rdi
    38e0:	e8 2b f8 ff ff       	callq  3110 <_ZSt12__miter_baseIPhET_S1_>
    38e5:	c9                   	leaveq 
    38e6:	c3                   	retq   

00000000000038e7 <_ZSt14__copy_move_a2ILb1EPhS0_ET1_T0_S2_S1_>:
    38e7:	f3 0f 1e fa          	endbr64 
    38eb:	55                   	push   %rbp
    38ec:	48 89 e5             	mov    %rsp,%rbp
    38ef:	41 54                	push   %r12
    38f1:	53                   	push   %rbx
    38f2:	48 83 ec 20          	sub    $0x20,%rsp
    38f6:	48 89 7d e8          	mov    %rdi,-0x18(%rbp)
    38fa:	48 89 75 e0          	mov    %rsi,-0x20(%rbp)
    38fe:	48 89 55 d8          	mov    %rdx,-0x28(%rbp)
    3902:	48 8b 45 d8          	mov    -0x28(%rbp),%rax
    3906:	48 89 c7             	mov    %rax,%rdi
    3909:	e8 c9 fa ff ff       	callq  33d7 <_ZSt12__niter_baseIPhET_S1_>
    390e:	49 89 c4             	mov    %rax,%r12
    3911:	48 8b 45 e0          	mov    -0x20(%rbp),%rax
    3915:	48 89 c7             	mov    %rax,%rdi
    3918:	e8 ba fa ff ff       	callq  33d7 <_ZSt12__niter_baseIPhET_S1_>
    391d:	48 89 c3             	mov    %rax,%rbx
    3920:	48 8b 45 e8          	mov    -0x18(%rbp),%rax
    3924:	48 89 c7             	mov    %rax,%rdi
    3927:	e8 ab fa ff ff       	callq  33d7 <_ZSt12__niter_baseIPhET_S1_>
    392c:	4c 89 e2             	mov    %r12,%rdx
    392f:	48 89 de             	mov    %rbx,%rsi
    3932:	48 89 c7             	mov    %rax,%rdi
    3935:	e8 31 00 00 00       	callq  396b <_ZSt13__copy_move_aILb1EPhS0_ET1_T0_S2_S1_>
    393a:	48 89 c2             	mov    %rax,%rdx
    393d:	48 8d 45 d8          	lea    -0x28(%rbp),%rax
    3941:	48 89 d6             	mov    %rdx,%rsi
    3944:	48 89 c7             	mov    %rax,%rdi
    3947:	e8 d2 fa ff ff       	callq  341e <_ZSt12__niter_wrapIPhET_RKS1_S1_>
    394c:	48 83 c4 20          	add    $0x20,%rsp
    3950:	5b                   	pop    %rbx
    3951:	41 5c                	pop    %r12
    3953:	5d                   	pop    %rbp
    3954:	c3                   	retq   
    3955:	90                   	nop

0000000000003956 <_ZNKSt13move_iteratorIPhE4baseEv>:
    3956:	f3 0f 1e fa          	endbr64 
    395a:	55                   	push   %rbp
    395b:	48 89 e5             	mov    %rsp,%rbp
    395e:	48 89 7d f8          	mov    %rdi,-0x8(%rbp)
    3962:	48 8b 45 f8          	mov    -0x8(%rbp),%rax
    3966:	48 8b 00             	mov    (%rax),%rax
    3969:	5d                   	pop    %rbp
    396a:	c3                   	retq   

000000000000396b <_ZSt13__copy_move_aILb1EPhS0_ET1_T0_S2_S1_>:
    396b:	f3 0f 1e fa          	endbr64 
    396f:	55                   	push   %rbp
    3970:	48 89 e5             	mov    %rsp,%rbp
    3973:	48 83 ec 30          	sub    $0x30,%rsp
    3977:	48 89 7d e8          	mov    %rdi,-0x18(%rbp)
    397b:	48 89 75 e0          	mov    %rsi,-0x20(%rbp)
    397f:	48 89 55 d8          	mov    %rdx,-0x28(%rbp)
    3983:	c6 45 ff 01          	movb   $0x1,-0x1(%rbp)
    3987:	48 8b 55 d8          	mov    -0x28(%rbp),%rdx
    398b:	48 8b 4d e0          	mov    -0x20(%rbp),%rcx
    398f:	48 8b 45 e8          	mov    -0x18(%rbp),%rax
    3993:	48 89 ce             	mov    %rcx,%rsi
    3996:	48 89 c7             	mov    %rax,%rdi
    3999:	e8 02 00 00 00       	callq  39a0 <_ZNSt11__copy_moveILb1ELb1ESt26random_access_iterator_tagE8__copy_mIhEEPT_PKS3_S6_S4_>
    399e:	c9                   	leaveq 
    399f:	c3                   	retq   

00000000000039a0 <_ZNSt11__copy_moveILb1ELb1ESt26random_access_iterator_tagE8__copy_mIhEEPT_PKS3_S6_S4_>:
    39a0:	f3 0f 1e fa          	endbr64 
    39a4:	55                   	push   %rbp
    39a5:	48 89 e5             	mov    %rsp,%rbp
    39a8:	48 83 ec 30          	sub    $0x30,%rsp
    39ac:	48 89 7d e8          	mov    %rdi,-0x18(%rbp)
    39b0:	48 89 75 e0          	mov    %rsi,-0x20(%rbp)
    39b4:	48 89 55 d8          	mov    %rdx,-0x28(%rbp)
    39b8:	48 8b 45 e0          	mov    -0x20(%rbp),%rax
    39bc:	48 2b 45 e8          	sub    -0x18(%rbp),%rax
    39c0:	48 89 45 f8          	mov    %rax,-0x8(%rbp)
    39c4:	48 83 7d f8 00       	cmpq   $0x0,-0x8(%rbp)
    39c9:	74 17                	je     39e2 <_ZNSt11__copy_moveILb1ELb1ESt26random_access_iterator_tagE8__copy_mIhEEPT_PKS3_S6_S4_+0x42>
    39cb:	48 8b 55 f8          	mov    -0x8(%rbp),%rdx
    39cf:	48 8b 4d e8          	mov    -0x18(%rbp),%rcx
    39d3:	48 8b 45 d8          	mov    -0x28(%rbp),%rax
    39d7:	48 89 ce             	mov    %rcx,%rsi
    39da:	48 89 c7             	mov    %rax,%rdi
    39dd:	e8 ae d8 ff ff       	callq  1290 <memmove@plt>
    39e2:	48 8b 55 f8          	mov    -0x8(%rbp),%rdx
    39e6:	48 8b 45 d8          	mov    -0x28(%rbp),%rax
    39ea:	48 01 d0             	add    %rdx,%rax
    39ed:	c9                   	leaveq 
    39ee:	c3                   	retq   
    39ef:	90                   	nop

00000000000039f0 <__libc_csu_init>:
    39f0:	f3 0f 1e fa          	endbr64 
    39f4:	41 57                	push   %r15
    39f6:	4c 8d 3d e3 32 00 00 	lea    0x32e3(%rip),%r15        # 6ce0 <__frame_dummy_init_array_entry>
    39fd:	41 56                	push   %r14
    39ff:	49 89 d6             	mov    %rdx,%r14
    3a02:	41 55                	push   %r13
    3a04:	49 89 f5             	mov    %rsi,%r13
    3a07:	41 54                	push   %r12
    3a09:	41 89 fc             	mov    %edi,%r12d
    3a0c:	55                   	push   %rbp
    3a0d:	48 8d 2d dc 32 00 00 	lea    0x32dc(%rip),%rbp        # 6cf0 <__do_global_dtors_aux_fini_array_entry>
    3a14:	53                   	push   %rbx
    3a15:	4c 29 fd             	sub    %r15,%rbp
    3a18:	48 83 ec 08          	sub    $0x8,%rsp
    3a1c:	e8 df d5 ff ff       	callq  1000 <_init>
    3a21:	48 c1 fd 03          	sar    $0x3,%rbp
    3a25:	74 1f                	je     3a46 <__libc_csu_init+0x56>
    3a27:	31 db                	xor    %ebx,%ebx
    3a29:	0f 1f 80 00 00 00 00 	nopl   0x0(%rax)
    3a30:	4c 89 f2             	mov    %r14,%rdx
    3a33:	4c 89 ee             	mov    %r13,%rsi
    3a36:	44 89 e7             	mov    %r12d,%edi
    3a39:	41 ff 14 df          	callq  *(%r15,%rbx,8)
    3a3d:	48 83 c3 01          	add    $0x1,%rbx
    3a41:	48 39 dd             	cmp    %rbx,%rbp
    3a44:	75 ea                	jne    3a30 <__libc_csu_init+0x40>
    3a46:	48 83 c4 08          	add    $0x8,%rsp
    3a4a:	5b                   	pop    %rbx
    3a4b:	5d                   	pop    %rbp
    3a4c:	41 5c                	pop    %r12
    3a4e:	41 5d                	pop    %r13
    3a50:	41 5e                	pop    %r14
    3a52:	41 5f                	pop    %r15
    3a54:	c3                   	retq   
    3a55:	66 66 2e 0f 1f 84 00 	data16 nopw %cs:0x0(%rax,%rax,1)
    3a5c:	00 00 00 00 

0000000000003a60 <__libc_csu_fini>:
    3a60:	f3 0f 1e fa          	endbr64 
    3a64:	c3                   	retq   

Disassembly of section .fini:

0000000000003a68 <_fini>:
    3a68:	f3 0f 1e fa          	endbr64 
    3a6c:	48 83 ec 08          	sub    $0x8,%rsp
    3a70:	48 83 c4 08          	add    $0x8,%rsp
    3a74:	c3                   	retq   
